# SymbolsHelper-Confirmed: 24.08.2 amd64
libkpmcore.so.12 libkpmcore12 #MINVER#
* Build-Depends-Package: libkpmcore-dev
 _Z12aboutKPMcorev@Base 22.04.3
 _Z13generateFstabRK5QListI10FstabEntryE@Base 24.05.2
 _Z16readFstabEntriesRK7QString@Base 22.04.3
 _Z16writeMountpointsRK5QListI10FstabEntryE@Base 22.04.3
 _Z17registerMetaTypesv@Base 22.04.3
 _Z19possibleMountPointsRK7QStringS1_@Base 22.04.3
 _Z23caseInsensitiveLessThanRK7QStringS1_@Base 22.04.3
 _Z9isMountedRK7QString@Base 22.04.3
 _ZN10DiskDeviceC1ERK7QStringS2_xxS2_@Base 24.08.2
 _ZN10DiskDeviceC2ERK7QStringS2_xxS2_@Base 24.08.2
 _ZN10FileSystem10addFeatureERK7QStringRK8QVariant@Base 22.04.3
 _ZN10FileSystem10writeLabelER6ReportRK7QStringS4_@Base 22.04.3
 _ZN10FileSystem11addFeaturesERK4QMapI7QString8QVariantE@Base 22.04.3
 _ZN10FileSystem11nameForTypeENS_4TypeERK5QListI7QStringE@Base 24.05.2
 _ZN10FileSystem11typeForNameERK7QStringRK5QListIS0_E@Base 24.05.2
 _ZN10FileSystem12findExternalERK7QStringRK5QListIS0_Ei@Base 24.05.2
 _ZN10FileSystem13setLastSectorEx@Base 22.04.3
 _ZN10FileSystem13setSectorSizeEx@Base 22.04.3
 _ZN10FileSystem14setFirstSectorEx@Base 22.04.3
 _ZN10FileSystem14setSectorsUsedEx@Base 22.04.3
 _ZN10FileSystem15createWithLabelER6ReportRK7QStringS4_@Base 22.04.3
 _ZN10FileSystem16defaultColorCodeE@Base 22.04.3
 _ZN10FileSystem16detectFileSystemERK7QString@Base 22.04.3
 _ZN10FileSystem16detectMountPointEPS_RK7QString@Base 22.04.3
 _ZN10FileSystem16writeLabelOnlineER6ReportRK7QStringS4_S4_@Base 22.04.3
 _ZN10FileSystem17detectMountStatusEPS_RK7QString@Base 22.04.3
 _ZN10FileSystem19addAvailableFeatureERK7QString@Base 22.04.3
 _ZN10FileSystem23implSetPosixPermissionsERK7QString@Base 22.04.3
 _ZN10FileSystem25execChangePosixPermissionER6ReportRK7QString@Base 22.04.3
 _ZN10FileSystem4moveEx@Base 22.04.3
 _ZN10FileSystem4scanERK7QString@Base 22.04.3
 _ZN10FileSystem5mountER6ReportRK7QStringS4_@Base 22.04.3
 _ZN10FileSystem5typesEv@Base 22.04.3
 _ZN10FileSystem6createER6ReportRK7QString@Base 22.04.3
 _ZN10FileSystem7setUUIDERK7QString@Base 22.04.3
 _ZN10FileSystem7unmountER6ReportRK7QString@Base 22.04.3
 _ZN10FileSystem8setLabelERK7QString@Base 22.04.3
 _ZN10FileSystemC1ExxxRK7QStringNS_4TypeE@Base 22.04.3
 _ZN10FileSystemC1ExxxRK7QStringRK4QMapIS0_8QVariantENS_4TypeE@Base 22.04.3
 _ZN10FileSystemC2ExxxRK7QStringNS_4TypeE@Base 22.04.3
 _ZN10FileSystemC2ExxxRK7QStringRK4QMapIS0_8QVariantENS_4TypeE@Base 22.04.3
 _ZN10FileSystemD0Ev@Base 22.04.3
 _ZN10FileSystemD1Ev@Base 22.04.3
 _ZN10FileSystemD2Ev@Base 22.04.3
 _ZN10FstabEntry10setOptionsERK5QListI7QStringE@Base 24.05.2
 _ZN10FstabEntry11setDumpFreqEi@Base 22.04.3
 _ZN10FstabEntry13setMountPointERK7QString@Base 22.04.3
 _ZN10FstabEntry13setPassNumberEi@Base 22.04.3
 _ZN10FstabEntry9setFsSpecERK7QString@Base 22.04.3
 _ZN10FstabEntryC1ERK7QStringS2_S2_S2_iiS2_@Base 22.04.3
 _ZN10FstabEntryC2ERK7QStringS2_S2_S2_iiS2_@Base 22.04.3
 _ZN10HtmlReport6footerEv@Base 22.04.3
 _ZN10HtmlReport6headerEv@Base 22.04.3
 _ZN10HtmlReport9tableLineERK7QStringS0_@Base 22.04.3
 _ZN10PartWidget10paintEventEP11QPaintEvent@Base 22.04.3
 _ZN10PartWidget11qt_metacallEN11QMetaObject4CallEiPPv@Base 22.04.3
 _ZN10PartWidget11qt_metacastEPKc@Base 22.04.3
 _ZN10PartWidget11resizeEventEP12QResizeEvent@Base 22.04.3
 _ZN10PartWidget14updateChildrenEv@Base 22.04.3
 _ZN10PartWidget16staticMetaObjectE@Base 22.04.3
 _ZN10PartWidget22setFileSystemColorCodeERKSt6vectorI6QColorSaIS1_EE@Base 22.04.3
 _ZN10PartWidget4initEP9Partition@Base 22.04.3
 _ZN10PartWidgetC1EP7QWidgetP9Partition@Base 22.04.3
 _ZN10PartWidgetC2EP7QWidgetP9Partition@Base 22.04.3
 _ZN11CoreBackend10setVersionERK7QString@Base 22.04.3
 _ZN11CoreBackend11qt_metacallEN11QMetaObject4CallEiPPv@Base 22.04.3
 _ZN11CoreBackend11qt_metacastEPKc@Base 22.04.3
 _ZN11CoreBackend12emitProgressEi@Base 22.04.3
 _ZN11CoreBackend12scanProgressERK7QStringi@Base 22.04.3
 _ZN11CoreBackend16emitScanProgressERK7QStringi@Base 22.04.3
 _ZN11CoreBackend16staticMetaObjectE@Base 22.04.3
 _ZN11CoreBackend26isPolkitInstalledCorrectlyEv@Base 22.04.3
 _ZN11CoreBackend26setPartitionTableForDeviceER6DeviceP14PartitionTable@Base 22.04.3
 _ZN11CoreBackend29setPartitionTableMaxPrimariesER14PartitionTablei@Base 22.04.3
 _ZN11CoreBackend2idEv@Base 22.04.3
 _ZN11CoreBackend5setIdERK7QString@Base 22.04.3
 _ZN11CoreBackend7versionEv@Base 22.04.3
 _ZN11CoreBackend8progressEi@Base 22.04.3
 _ZN11CoreBackendC1Ev@Base 22.04.3
 _ZN11CoreBackendC2Ev@Base 22.04.3
 _ZN11CoreBackendD0Ev@Base 22.04.3
 _ZN11CoreBackendD1Ev@Base 22.04.3
 _ZN11CoreBackendD2Ev@Base 22.04.3
 _ZN11SmartStatus12tempToStringEy@Base 22.04.3
 _ZN11SmartStatus13addAttributesE5QListI24SmartAttributeParsedDataE@Base 22.04.3
 _ZN11SmartStatus22selfTestStatusToStringENS_14SelfTestStatusE@Base 22.04.3
 _ZN11SmartStatus25overallAssessmentToStringENS_7OverallE@Base 22.04.3
 _ZN11SmartStatus6updateEv@Base 22.04.3
 _ZN11SmartStatusC1ERK7QString@Base 22.04.3
 _ZN11SmartStatusC2ERK7QString@Base 22.04.3
 _ZN12NewOperation11setLabelJobEv@Base 22.04.3
 _ZN12NewOperation12canCreateNewEPK9Partition@Base 22.04.3
 _ZN12NewOperation12newPartitionEv@Base 22.04.3
 _ZN12NewOperation12targetDeviceEv@Base 22.04.3
 _ZN12NewOperation15setPartFlagsJobEv@Base 22.04.3
 _ZN12NewOperation18createPartitionJobEv@Base 22.04.3
 _ZN12NewOperation19createFileSystemJobEv@Base 22.04.3
 _ZN12NewOperation19setPartitionUUIDJobEv@Base 22.04.3
 _ZN12NewOperation20setPartitionLabelJobEv@Base 22.04.3
 _ZN12NewOperation25setPartitionAttributesJobEv@Base 22.04.3
 _ZN12NewOperation4undoEv@Base 22.04.3
 _ZN12NewOperation7previewEv@Base 22.04.3
 _ZN12NewOperation8checkJobEv@Base 22.04.3
 _ZN12NewOperation9createNewERK9PartitionN10FileSystem4TypeE@Base 22.04.3
 _ZN12NewOperationC1ER6DeviceP9Partition@Base 22.04.3
 _ZN12NewOperationC2ER6DeviceP9Partition@Base 22.04.3
 _ZN12NewOperationD0Ev@Base 22.04.3
 _ZN12NewOperationD1Ev@Base 22.04.3
 _ZN12NewOperationD2Ev@Base 22.04.3
 _ZN12SoftwareRAID10isRaidPathERK7QString@Base 22.04.3
 _ZN12SoftwareRAID11shrinkArrayER6ReportRK5QListI7QStringE@Base 24.05.2
 _ZN12SoftwareRAID12getArraySizeERK7QString@Base 22.04.3
 _ZN12SoftwareRAID12getChunkSizeERK7QString@Base 22.04.3
 _ZN12SoftwareRAID12getRaidLevelERK7QString@Base 22.04.3
 _ZN12SoftwareRAID12isRaidMemberERK7QString@Base 22.04.3
 _ZN12SoftwareRAID13getTotalChunkERK7QString@Base 22.04.3
 _ZN12SoftwareRAID14initPartitionsEv@Base 22.04.3
 _ZN12SoftwareRAID16scanSoftwareRAIDER5QListIP6DeviceE@Base 22.04.3
 _ZN12SoftwareRAID16stopSoftwareRAIDERK7QString@Base 22.04.3
 _ZN12SoftwareRAID17getDevicePathListERK7QString@Base 22.04.3
 _ZN12SoftwareRAID18createSoftwareRAIDER6ReportRK7QString5QListIS2_Eii@Base 24.05.2
 _ZN12SoftwareRAID18deleteSoftwareRAIDER6ReportRS_@Base 22.04.3
 _ZN12SoftwareRAID20assembleSoftwareRAIDERK7QString@Base 22.04.3
 _ZN12SoftwareRAID20getRAIDConfigurationERK7QString@Base 22.04.3
 _ZN12SoftwareRAID22reassembleSoftwareRAIDERK7QString@Base 22.04.3
 _ZN12SoftwareRAID7getUUIDERK7QString@Base 22.04.3
 _ZN12SoftwareRAID9getDetailERK7QString@Base 22.04.3
 _ZN12SoftwareRAID9growArrayER6ReportRK5QListI7QStringE@Base 24.05.2
 _ZN12SoftwareRAID9setStatusENS_6StatusE@Base 22.04.3
 _ZN12SoftwareRAIDC1ERK7QStringNS_6StatusES2_@Base 22.04.3
 _ZN12SoftwareRAIDC2ERK7QStringNS_6StatusES2_@Base 22.04.3
 _ZN13CopyOperation10createCopyERK9PartitionS2_@Base 22.04.3
 _ZN13CopyOperation23setOverwrittenPartitionEP9Partition@Base 22.04.3
 _ZN13CopyOperation27cleanupOverwrittenPartitionEv@Base 22.04.3
 _ZN13CopyOperation4undoEv@Base 22.04.3
 _ZN13CopyOperation7canCopyEPK9Partition@Base 22.04.3
 _ZN13CopyOperation7executeER6Report@Base 22.04.3
 _ZN13CopyOperation7previewEv@Base 22.04.3
 _ZN13CopyOperation8canPasteEPK9PartitionS2_@Base 22.04.3
 _ZN13CopyOperationC1ER6DeviceP9PartitionS1_S3_@Base 22.04.3
 _ZN13CopyOperationC2ER6DeviceP9PartitionS1_S3_@Base 22.04.3
 _ZN13CopyOperationD0Ev@Base 22.04.3
 _ZN13CopyOperationD1Ev@Base 22.04.3
 _ZN13CopyOperationD2Ev@Base 22.04.3
 _ZN13DeviceScanner11qt_metacallEN11QMetaObject4CallEiPPv@Base 22.04.3
 _ZN13DeviceScanner11qt_metacastEPKc@Base 22.04.3
 _ZN13DeviceScanner16setupConnectionsEv@Base 22.04.3
 _ZN13DeviceScanner16staticMetaObjectE@Base 22.04.3
 _ZN13DeviceScanner3runEv@Base 22.04.3
 _ZN13DeviceScanner4scanEv@Base 22.04.3
 _ZN13DeviceScanner5clearEv@Base 22.04.3
 _ZN13DeviceScanner8progressERK7QStringi@Base 22.04.3
 _ZN13DeviceScannerC1EP7QObjectR14OperationStack@Base 22.04.3
 _ZN13DeviceScannerC2EP7QObjectR14OperationStack@Base 22.04.3
 _ZN13PartitionNode11predecessorER9Partition@Base 22.04.3
 _ZN13PartitionNode13clearChildrenEv@Base 22.04.3
 _ZN13PartitionNode21findPartitionBySectorExRK13PartitionRole@Base 22.04.3
 _ZN13PartitionNode6insertEP9Partition@Base 22.04.3
 _ZN13PartitionNode6removeEP9Partition@Base 22.04.3
 _ZN13PartitionNode8reparentER9Partition@Base 22.04.3
 _ZN13PartitionNode9successorER9Partition@Base 22.04.3
 _ZN14CheckOperation8canCheckEPK9Partition@Base 22.04.3
 _ZN14CheckOperationC1ER6DeviceR9Partition@Base 22.04.3
 _ZN14CheckOperationC2ER6DeviceR9Partition@Base 22.04.3
 _ZN14OperationStack11qt_metacallEN11QMetaObject4CallEiPPv@Base 22.04.3
 _ZN14OperationStack11qt_metacastEPKc@Base 22.04.3
 _ZN14OperationStack11sortDevicesEv@Base 22.04.3
 _ZN14OperationStack12clearDevicesEv@Base 22.04.3
 _ZN14OperationStack14devicesChangedEv@Base 22.04.3
 _ZN14OperationStack15clearOperationsEv@Base 22.04.3
 _ZN14OperationStack16staticMetaObjectE@Base 22.04.3
 _ZN14OperationStack17mergeNewOperationERP9OperationS2_@Base 22.04.3
 _ZN14OperationStack17operationsChangedEv@Base 22.04.3
 _ZN14OperationStack18mergeCopyOperationERP9OperationS2_@Base 22.04.3
 _ZN14OperationStack21mergeRestoreOperationERP9OperationS2_@Base 22.04.3
 _ZN14OperationStack22findDeviceForPartitionEPK9Partition@Base 22.04.3
 _ZN14OperationStack23mergePartFlagsOperationERP9OperationS2_@Base 22.04.3
 _ZN14OperationStack23mergePartLabelOperationERP9OperationS2_@Base 22.04.3
 _ZN14OperationStack34mergeCreatePartitionTableOperationERP9OperationS2_@Base 22.04.3
 _ZN14OperationStack37mergeResizeVolumeGroupResizeOperationERP9Operation@Base 22.04.3
 _ZN14OperationStack3popEv@Base 22.04.3
 _ZN14OperationStack4pushEP9Operation@Base 22.04.3
 _ZN14OperationStack9addDeviceEP6Device@Base 22.04.3
 _ZN14OperationStackC1EP7QObject@Base 22.04.3
 _ZN14OperationStackC2EP7QObject@Base 22.04.3
 _ZN14OperationStackD0Ev@Base 22.04.3
 _ZN14OperationStackD1Ev@Base 22.04.3
 _ZN14OperationStackD2Ev@Base 22.04.3
 _ZN14PartWidgetBase10m_MinWidthE@Base 22.04.3
 _ZN14PartWidgetBase13m_BorderWidthE@Base 22.04.3
 _ZN14PartWidgetBase14m_BorderHeightE@Base 22.04.3
 _ZN14PartWidgetBase9m_SpacingE@Base 22.04.3
 _ZN14PartitionTable13flagsFromListE5QListI7QStringE@Base 24.05.2
 _ZN14PartitionTable15nameToTableTypeERK7QString@Base 22.04.3
 _ZN14PartitionTable15tableTypeToNameENS_9TableTypeE@Base 22.04.3
 _ZN14PartitionTable17defaultLastUsableERK6DeviceNS_9TableTypeE@Base 22.04.3
 _ZN14PartitionTable17insertUnallocatedERK6DeviceP13PartitionNodex@Base 22.04.3
 _ZN14PartitionTable17removeUnallocatedEP13PartitionNode@Base 22.04.3
 _ZN14PartitionTable17removeUnallocatedEv@Base 22.04.3
 _ZN14PartitionTable17updateUnallocatedERK6Device@Base 22.04.3
 _ZN14PartitionTable18defaultFirstUsableERK6DeviceNS_9TableTypeE@Base 22.04.3
 _ZN14PartitionTable19getUnallocatedRangeERK6DeviceR13PartitionNodeRxS5_@Base 22.04.3
 _ZN14PartitionTable19tableTypeIsReadOnlyENS_9TableTypeE@Base 22.04.3
 _ZN14PartitionTable24maxPrimariesForTableTypeENS_9TableTypeE@Base 22.04.3
 _ZN14PartitionTable25tableTypeSupportsExtendedENS_9TableTypeE@Base 22.04.3
 _ZN14PartitionTable6appendEP9Partition@Base 22.04.3
 _ZN14PartitionTable7setTypeERK6DeviceNS_9TableTypeE@Base 22.04.3
 _ZN14PartitionTable8flagListEv@Base 22.04.3
 _ZN14PartitionTable8flagNameENS_4FlagE@Base 22.04.3
 _ZN14PartitionTable9flagNamesE6QFlagsINS_4FlagEE@Base 22.04.3
 _ZN14PartitionTableC1ENS_9TableTypeExx@Base 22.04.3
 _ZN14PartitionTableC1ERKS_@Base 22.04.3
 _ZN14PartitionTableC2ENS_9TableTypeExx@Base 22.04.3
 _ZN14PartitionTableC2ERKS_@Base 22.04.3
 _ZN14PartitionTableD0Ev@Base 22.04.3
 _ZN14PartitionTableD1Ev@Base 22.04.3
 _ZN14PartitionTableD2Ev@Base 22.04.3
 _ZN14SmartAttribute18assessmentToStringENS_10AssessmentE@Base 22.04.3
 _ZN14SmartAttributeC1ERK24SmartAttributeParsedData@Base 22.04.3
 _ZN14SmartAttributeC2ERK24SmartAttributeParsedData@Base 22.04.3
 _ZN15BackupOperation9canBackupEPK9Partition@Base 22.04.3
 _ZN15BackupOperationC1ER6DeviceR9PartitionRK7QString@Base 22.04.3
 _ZN15BackupOperationC2ER6DeviceR9PartitionRK7QString@Base 22.04.3
 _ZN15DeleteOperation25checkAdjustLogicalNumbersER9Partitionb@Base 22.04.3
 _ZN15DeleteOperation4undoEv@Base 22.04.3
 _ZN15DeleteOperation7previewEv@Base 22.04.3
 _ZN15DeleteOperation9canDeleteEPK9Partition@Base 22.04.3
 _ZN15DeleteOperationC1ER6DeviceP9PartitionNS_11ShredActionE@Base 22.04.3
 _ZN15DeleteOperationC2ER6DeviceP9PartitionNS_11ShredActionE@Base 22.04.3
 _ZN15DeleteOperationD0Ev@Base 22.04.3
 _ZN15DeleteOperationD1Ev@Base 22.04.3
 _ZN15DeleteOperationD2Ev@Base 22.04.3
 _ZN15ExternalCommand10copyBlocksERK10CopySourceR10CopyTarget@Base 22.04.3
 _ZN15ExternalCommand10setCommandERK7QString@Base 22.04.3
 _ZN15ExternalCommand10writeFstabERK10QByteArray@Base 22.04.3
 _ZN15ExternalCommand11qt_metacallEN11QMetaObject4CallEiPPv@Base 22.04.3
 _ZN15ExternalCommand11qt_metacastEPKc@Base 22.04.3
 _ZN15ExternalCommand11setExitCodeEi@Base 22.04.3
 _ZN15ExternalCommand12onReadOutputEv@Base 22.04.3
 _ZN15ExternalCommand12reportSignalERK7QString@Base 22.04.3
 _ZN15ExternalCommand15helperInterfaceEv@Base 22.04.3
 _ZN15ExternalCommand16staticMetaObjectE@Base 22.04.3
 _ZN15ExternalCommand16waitForDbusReplyER16QDBusPendingCall@Base 22.04.3
 _ZN15ExternalCommand3runEi@Base 22.04.3
 _ZN15ExternalCommand5startEi@Base 22.04.3
 _ZN15ExternalCommand5writeERK10QByteArray@Base 22.04.3
 _ZN15ExternalCommand6addArgERK7QString@Base 22.04.3
 _ZN15ExternalCommand6reportEv@Base 22.04.3
 _ZN15ExternalCommand7setArgsERK5QListI7QStringE@Base 24.05.2
 _ZN15ExternalCommand8progressEi@Base 22.04.3
 _ZN15ExternalCommand8readDataERK16CopySourceDevice@Base 22.04.3
 _ZN15ExternalCommand9writeDataER6ReportRK10QByteArrayRK7QStringy@Base 22.04.3
 _ZN15ExternalCommandC1ER6ReportRK7QStringRK5QListIS2_EN8QProcess18ProcessChannelModeE@Base 24.05.2
 _ZN15ExternalCommandC1ERK7QStringRK5QListIS0_EN8QProcess18ProcessChannelModeE@Base 24.05.2
 _ZN15ExternalCommandC2ER6ReportRK7QStringRK5QListIS2_EN8QProcess18ProcessChannelModeE@Base 24.05.2
 _ZN15ExternalCommandC2ERK7QStringRK5QListIS0_EN8QProcess18ProcessChannelModeE@Base 24.05.2
 _ZN15ExternalCommandD0Ev@Base 22.04.3
 _ZN15ExternalCommandD1Ev@Base 22.04.3
 _ZN15ExternalCommandD2Ev@Base 22.04.3
 _ZN15OperationRunner10opFinishedEiP9Operation@Base 22.04.3
 _ZN15OperationRunner11progressSubEi@Base 22.04.3
 _ZN15OperationRunner11qt_metacallEN11QMetaObject4CallEiPPv@Base 22.04.3
 _ZN15OperationRunner11qt_metacastEPKc@Base 22.04.3
 _ZN15OperationRunner16staticMetaObjectE@Base 22.04.3
 _ZN15OperationRunner3runEv@Base 22.04.3
 _ZN15OperationRunner5errorEv@Base 22.04.3
 _ZN15OperationRunner8finishedEv@Base 22.04.3
 _ZN15OperationRunner9cancelledEv@Base 22.04.3
 _ZN15OperationRunner9opStartedEiP9Operation@Base 22.04.3
 _ZN15OperationRunnerC1EP7QObjectR14OperationStack@Base 22.04.3
 _ZN15OperationRunnerC2EP7QObjectR14OperationStack@Base 22.04.3
 _ZN15ResizeOperation16isLVMPVinNewlyVGEPK9Partition@Base 22.04.3
 _ZN15ResizeOperation4growER6Report@Base 22.04.3
 _ZN15ResizeOperation4moveER6Report@Base 22.04.3
 _ZN15ResizeOperation4undoEv@Base 22.04.3
 _ZN15ResizeOperation6shrinkER6Report@Base 22.04.3
 _ZN15ResizeOperation7canGrowEPK9Partition@Base 22.04.3
 _ZN15ResizeOperation7canMoveEPK9Partition@Base 22.04.3
 _ZN15ResizeOperation7executeER6Report@Base 22.04.3
 _ZN15ResizeOperation7previewEv@Base 22.04.3
 _ZN15ResizeOperation9canShrinkEPK9Partition@Base 22.04.3
 _ZN15ResizeOperationC1ER6DeviceR9Partitionxx@Base 22.04.3
 _ZN15ResizeOperationC2ER6DeviceR9Partitionxx@Base 22.04.3
 _ZN16RestoreOperation10canRestoreEPK9Partition@Base 22.04.3
 _ZN16RestoreOperation22createRestorePartitionERK6DeviceR13PartitionNodexRK7QString@Base 22.04.3
 _ZN16RestoreOperation23setOverwrittenPartitionEP9Partition@Base 22.04.3
 _ZN16RestoreOperation27cleanupOverwrittenPartitionEv@Base 22.04.3
 _ZN16RestoreOperation4undoEv@Base 22.04.3
 _ZN16RestoreOperation7executeER6Report@Base 22.04.3
 _ZN16RestoreOperation7previewEv@Base 22.04.3
 _ZN16RestoreOperationC1ER6DeviceP9PartitionRK7QString@Base 22.04.3
 _ZN16RestoreOperationC2ER6DeviceP9PartitionRK7QString@Base 22.04.3
 _ZN16RestoreOperationD0Ev@Base 22.04.3
 _ZN16RestoreOperationD1Ev@Base 22.04.3
 _ZN16RestoreOperationD2Ev@Base 22.04.3
 _ZN17FileSystemFactory13m_FileSystemsE@Base 22.04.3
 _ZN17FileSystemFactory16cloneWithNewTypeEN10FileSystem4TypeERKS0_@Base 22.04.3
 _ZN17FileSystemFactory3mapEv@Base 22.04.3
 _ZN17FileSystemFactory4initEv@Base 22.04.3
 _ZN17FileSystemFactory6createEN10FileSystem4TypeExxxxRK7QStringRK4QMapIS2_8QVariantES4_@Base 22.04.3
 _ZN17FileSystemFactory6createERK10FileSystem@Base 22.04.3
 _ZN17PartResizerWidget10paintEventEP11QPaintEvent@Base 22.04.3
 _ZN17PartResizerWidget11qt_metacallEN11QMetaObject4CallEiPPv@Base 22.04.3
 _ZN17PartResizerWidget11qt_metacastEPKc@Base 22.04.3
 _ZN17PartResizerWidget11resizeEventEP12QResizeEvent@Base 22.04.3
 _ZN17PartResizerWidget13movePartitionEx@Base 22.04.3
 _ZN17PartResizerWidget14m_HandleHeightE@Base 22.04.3
 _ZN17PartResizerWidget14mouseMoveEventEP11QMouseEvent@Base 22.04.3
 _ZN17PartResizerWidget14resizeLogicalsExxb@Base 22.04.3
 _ZN17PartResizerWidget14setMoveAllowedEb@Base 22.04.3
 _ZN17PartResizerWidget15mousePressEventEP11QMouseEvent@Base 22.04.3
 _ZN17PartResizerWidget15updatePositionsEv@Base 22.04.3
 _ZN17PartResizerWidget16setMaximumLengthEx@Base 22.04.3
 _ZN17PartResizerWidget16setMinimumLengthEx@Base 22.04.3
 _ZN17PartResizerWidget16staticMetaObjectE@Base 22.04.3
 _ZN17PartResizerWidget16updateLastSectorEx@Base 22.04.3
 _ZN17PartResizerWidget17lastSectorChangedEx@Base 22.04.3
 _ZN17PartResizerWidget17mouseReleaseEventEP11QMouseEvent@Base 22.04.3
 _ZN17PartResizerWidget17updateFirstSectorEx@Base 22.04.3
 _ZN17PartResizerWidget18firstSectorChangedEx@Base 22.04.3
 _ZN17PartResizerWidget4initER6DeviceR9Partitionxxbb@Base 22.04.3
 _ZN17PartResizerWidgetC1EP7QWidget@Base 22.04.3
 _ZN17PartResizerWidgetC2EP7QWidget@Base 22.04.3
 _ZN18CoreBackendManager4loadERK7QString@Base 22.04.3
 _ZN18CoreBackendManager4selfEv@Base 22.04.3
 _ZN18CoreBackendManager6unloadEv@Base 22.04.3
 _ZN18CoreBackendManager7backendEv@Base 22.04.3
 _ZN18CoreBackendManagerC1Ev@Base 22.04.3
 _ZN18CoreBackendManagerC2Ev@Base 22.04.3
 _ZN18CoreBackendManagerD1Ev@Base 22.04.3
 _ZN18CoreBackendManagerD2Ev@Base 22.04.3
 _ZN18PartitionAlignment10firstDeltaERK6DeviceRK9Partitionx@Base 22.04.3
 _ZN18PartitionAlignment15isLengthAlignedERK6DeviceRK9Partition@Base 22.04.3
 _ZN18PartitionAlignment15sectorAlignmentERK6Device@Base 22.04.3
 _ZN18PartitionAlignment17alignedLastSectorERK6DeviceRK9Partitionxxxxxxb@Base 22.04.3
 _ZN18PartitionAlignment17s_sectorAlignmentE@Base 22.04.3
 _ZN18PartitionAlignment18alignedFirstSectorERK6DeviceRK9Partitionxxxxx@Base 22.04.3
 _ZN18PartitionAlignment18setSectorAlignmentEi@Base 22.04.3
 _ZN18PartitionAlignment9isAlignedERK6DeviceRK9Partitionb@Base 22.04.3
 _ZN18PartitionAlignment9isAlignedERK6DeviceRK9Partitionxxb@Base 22.04.3
 _ZN18PartitionAlignment9lastDeltaERK6DeviceRK9Partitionx@Base 22.04.3
 _ZN19VolumeManagerDevice11scanDevicesER5QListIP6DeviceE@Base 22.04.3
 _ZN19VolumeManagerDevice15setTotalLogicalEx@Base 22.04.3
 _ZN19VolumeManagerDeviceC1ESt10shared_ptrI26VolumeManagerDevicePrivateERK7QStringS5_xxS5_N6Device4TypeE@Base 22.04.3
 _ZN19VolumeManagerDeviceC2ESt10shared_ptrI26VolumeManagerDevicePrivateERK7QStringS5_xxS5_N6Device4TypeE@Base 22.04.3
 _ZN21SetPartFlagsOperation4undoEv@Base 22.04.3
 _ZN21SetPartFlagsOperation7previewEv@Base 22.04.3
 _ZN21SetPartFlagsOperationC1ER6DeviceR9PartitionRK6QFlagsIN14PartitionTable4FlagEE@Base 22.04.3
 _ZN21SetPartFlagsOperationC2ER6DeviceR9PartitionRK6QFlagsIN14PartitionTable4FlagEE@Base 22.04.3
 _ZN25CreateFileSystemOperation4undoEv@Base 22.04.3
 _ZN25CreateFileSystemOperation7executeER6Report@Base 22.04.3
 _ZN25CreateFileSystemOperation7previewEv@Base 22.04.3
 _ZN25CreateFileSystemOperationC1ER6DeviceR9PartitionN10FileSystem4TypeE@Base 22.04.3
 _ZN25CreateFileSystemOperationC2ER6DeviceR9PartitionN10FileSystem4TypeE@Base 22.04.3
 _ZN25CreateFileSystemOperationD0Ev@Base 22.04.3
 _ZN25CreateFileSystemOperationD1Ev@Base 22.04.3
 _ZN25CreateFileSystemOperationD2Ev@Base 22.04.3
 _ZN26CreateVolumeGroupOperation4undoEv@Base 22.04.3
 _ZN26CreateVolumeGroupOperation7previewEv@Base 22.04.3
 _ZN26CreateVolumeGroupOperation9canCreateEv@Base 22.04.3
 _ZN26CreateVolumeGroupOperationC1ERK7QStringRK5QListIPK9PartitionEi@Base 24.05.2
 _ZN26CreateVolumeGroupOperationC2ERK7QStringRK5QListIPK9PartitionEi@Base 24.05.2
 _ZN26RemoveVolumeGroupOperation11isRemovableEPK19VolumeManagerDevice@Base 22.04.3
 _ZN26RemoveVolumeGroupOperation4undoEv@Base 22.04.3
 _ZN26RemoveVolumeGroupOperation7previewEv@Base 22.04.3
 _ZN26RemoveVolumeGroupOperationC1ER19VolumeManagerDevice@Base 22.04.3
 _ZN26RemoveVolumeGroupOperationC2ER19VolumeManagerDevice@Base 22.04.3
 _ZN26ResizeVolumeGroupOperation4undoEv@Base 22.04.3
 _ZN26ResizeVolumeGroupOperation7previewEv@Base 22.04.3
 _ZN26ResizeVolumeGroupOperationC1ER9LvmDeviceRK5QListIPK9PartitionE@Base 24.05.2
 _ZN26ResizeVolumeGroupOperationC2ER9LvmDeviceRK5QListIPK9PartitionE@Base 24.05.2
 _ZN27SetFileSystemLabelOperation4undoEv@Base 22.04.3
 _ZN27SetFileSystemLabelOperation7previewEv@Base 22.04.3
 _ZN27SetFileSystemLabelOperationC1ER9PartitionRK7QString@Base 22.04.3
 _ZN27SetFileSystemLabelOperationC2ER9PartitionRK7QString@Base 22.04.3
 _ZN29CreatePartitionTableOperation4undoEv@Base 22.04.3
 _ZN29CreatePartitionTableOperation7executeER6Report@Base 22.04.3
 _ZN29CreatePartitionTableOperation7previewEv@Base 22.04.3
 _ZN29CreatePartitionTableOperation9canCreateEPK6Device@Base 22.04.3
 _ZN29CreatePartitionTableOperationC1ER6DeviceN14PartitionTable9TableTypeE@Base 22.04.3
 _ZN29CreatePartitionTableOperationC1ER6DeviceP14PartitionTable@Base 22.04.3
 _ZN29CreatePartitionTableOperationC2ER6DeviceN14PartitionTable9TableTypeE@Base 22.04.3
 _ZN29CreatePartitionTableOperationC2ER6DeviceP14PartitionTable@Base 22.04.3
 _ZN29CreatePartitionTableOperationD0Ev@Base 22.04.3
 _ZN29CreatePartitionTableOperationD1Ev@Base 22.04.3
 _ZN29CreatePartitionTableOperationD2Ev@Base 22.04.3
 _ZN2FS11unformatted6createER6ReportRK7QString@Base 22.04.3
 _ZN2FS11unformatted8m_CreateE@Base 22.04.3
 _ZN2FS11unformattedC1ExxxRK7QStringRK4QMapIS1_8QVariantE@Base 22.04.3
 _ZN2FS11unformattedC2ExxxRK7QStringRK4QMapIS1_8QVariantE@Base 22.04.3
 _ZN2FS15linuxraidmemberC1ExxxRK7QStringRK4QMapIS1_8QVariantE@Base 22.04.3
 _ZN2FS15linuxraidmemberC2ExxxRK7QStringRK4QMapIS1_8QVariantE@Base 22.04.3
 _ZN2FS3hfs10m_GetLabelE@Base 22.04.3
 _ZN2FS3hfs4initEv@Base 22.04.3
 _ZN2FS3hfs6createER6ReportRK7QString@Base 22.04.3
 _ZN2FS3hfs6m_CopyE@Base 22.04.3
 _ZN2FS3hfs6m_MoveE@Base 22.04.3
 _ZN2FS3hfs7m_CheckE@Base 22.04.3
 _ZN2FS3hfs8m_BackupE@Base 22.04.3
 _ZN2FS3hfs8m_CreateE@Base 22.04.3
 _ZN2FS3hfs8m_ShrinkE@Base 22.04.3
 _ZN2FS3hfs9m_GetUsedE@Base 22.04.3
 _ZN2FS3hfsC1ExxxRK7QStringRK4QMapIS1_8QVariantE@Base 22.04.3
 _ZN2FS3hfsC2ExxxRK7QStringRK4QMapIS1_8QVariantE@Base 22.04.3
 _ZN2FS3jfs10m_GetLabelE@Base 22.04.3
 _ZN2FS3jfs10m_SetLabelE@Base 22.04.3
 _ZN2FS3jfs10writeLabelER6ReportRK7QStringS5_@Base 22.04.3
 _ZN2FS3jfs16writeLabelOnlineER6ReportRK7QStringS5_S5_@Base 22.04.3
 _ZN2FS3jfs4initEv@Base 22.04.3
 _ZN2FS3jfs6createER6ReportRK7QString@Base 22.04.3
 _ZN2FS3jfs6m_CopyE@Base 22.04.3
 _ZN2FS3jfs6m_GrowE@Base 22.04.3
 _ZN2FS3jfs6m_MoveE@Base 22.04.3
 _ZN2FS3jfs7m_CheckE@Base 22.04.3
 _ZN2FS3jfs8m_BackupE@Base 22.04.3
 _ZN2FS3jfs8m_CreateE@Base 22.04.3
 _ZN2FS3jfs9m_GetUsedE@Base 22.04.3
 _ZN2FS3jfsC1ExxxRK7QStringRK4QMapIS1_8QVariantE@Base 22.04.3
 _ZN2FS3jfsC2ExxxRK7QStringRK4QMapIS1_8QVariantE@Base 22.04.3
 _ZN2FS3udf10m_SetLabelE@Base 22.04.3
 _ZN2FS3udf10writeLabelER6ReportRK7QStringS5_@Base 22.04.3
 _ZN2FS3udf12m_UpdateUUIDE@Base 22.04.3
 _ZN2FS3udf15createWithLabelER6ReportRK7QStringS5_@Base 22.04.3
 _ZN2FS3udf17oldMkudffsVersionE@Base 22.04.3
 _ZN2FS3udf4initEv@Base 22.04.3
 _ZN2FS3udf6createER6ReportRK7QString@Base 22.04.3
 _ZN2FS3udf8m_CreateE@Base 22.04.3
 _ZN2FS3udf9m_GetUsedE@Base 22.04.3
 _ZN2FS3udfC1ExxxRK7QStringRK4QMapIS1_8QVariantE@Base 22.04.3
 _ZN2FS3udfC2ExxxRK7QStringRK4QMapIS1_8QVariantE@Base 22.04.3
 _ZN2FS3ufs6m_CopyE@Base 22.04.3
 _ZN2FS3ufs6m_MoveE@Base 22.04.3
 _ZN2FS3ufs8m_BackupE@Base 22.04.3
 _ZN2FS3ufsC1ExxxRK7QStringRK4QMapIS1_8QVariantE@Base 22.04.3
 _ZN2FS3ufsC2ExxxRK7QStringRK4QMapIS1_8QVariantE@Base 22.04.3
 _ZN2FS3xfs10m_GetLabelE@Base 22.04.3
 _ZN2FS3xfs10m_SetLabelE@Base 22.04.3
 _ZN2FS3xfs10writeLabelER6ReportRK7QStringS5_@Base 22.04.3
 _ZN2FS3xfs4initEv@Base 22.04.3
 _ZN2FS3xfs6createER6ReportRK7QString@Base 22.04.3
 _ZN2FS3xfs6m_CopyE@Base 22.04.3
 _ZN2FS3xfs6m_GrowE@Base 22.04.3
 _ZN2FS3xfs6m_MoveE@Base 22.04.3
 _ZN2FS3xfs7m_CheckE@Base 22.04.3
 _ZN2FS3xfs8m_BackupE@Base 22.04.3
 _ZN2FS3xfs8m_CreateE@Base 22.04.3
 _ZN2FS3xfs9m_GetUsedE@Base 22.04.3
 _ZN2FS3xfsC1ExxxRK7QStringRK4QMapIS1_8QVariantE@Base 22.04.3
 _ZN2FS3xfsC2ExxxRK7QStringRK4QMapIS1_8QVariantE@Base 22.04.3
 _ZN2FS3zfs10m_GetLabelE@Base 22.04.3
 _ZN2FS3zfs10m_SetLabelE@Base 22.04.3
 _ZN2FS3zfs10writeLabelER6ReportRK7QStringS5_@Base 22.04.3
 _ZN2FS3zfs12m_UpdateUUIDE@Base 22.04.3
 _ZN2FS3zfs4initEv@Base 22.04.3
 _ZN2FS3zfs6m_CopyE@Base 22.04.3
 _ZN2FS3zfs6m_GrowE@Base 22.04.3
 _ZN2FS3zfs6m_MoveE@Base 22.04.3
 _ZN2FS3zfs7m_CheckE@Base 22.04.3
 _ZN2FS3zfs8m_BackupE@Base 22.04.3
 _ZN2FS3zfs8m_CreateE@Base 22.04.3
 _ZN2FS3zfs8m_ShrinkE@Base 22.04.3
 _ZN2FS3zfs9m_GetUUIDE@Base 22.04.3
 _ZN2FS3zfs9m_GetUsedE@Base 22.04.3
 _ZN2FS3zfsC1ExxxRK7QStringRK4QMapIS1_8QVariantE@Base 22.04.3
 _ZN2FS3zfsC2ExxxRK7QStringRK4QMapIS1_8QVariantE@Base 22.04.3
 _ZN2FS4apfs6m_CopyE@Base 22.04.3
 _ZN2FS4apfs6m_MoveE@Base 22.04.3
 _ZN2FS4apfs8m_BackupE@Base 22.04.3
 _ZN2FS4apfsC1ExxxRK7QStringRK4QMapIS1_8QVariantE@Base 22.04.3
 _ZN2FS4apfsC2ExxxRK7QStringRK4QMapIS1_8QVariantE@Base 22.04.3
 _ZN2FS4ext210m_GetLabelE@Base 22.04.3
 _ZN2FS4ext210m_SetLabelE@Base 22.04.3
 _ZN2FS4ext210writeLabelER6ReportRK7QStringS5_@Base 22.04.3
 _ZN2FS4ext212m_UpdateUUIDE@Base 22.04.3
 _ZN2FS4ext216writeLabelOnlineER6ReportRK7QStringS5_S5_@Base 22.04.3
 _ZN2FS4ext24initEv@Base 22.04.3
 _ZN2FS4ext26createER6ReportRK7QString@Base 22.04.3
 _ZN2FS4ext26m_CopyE@Base 22.04.3
 _ZN2FS4ext26m_GrowE@Base 22.04.3
 _ZN2FS4ext26m_MoveE@Base 22.04.3
 _ZN2FS4ext27m_CheckE@Base 22.04.3
 _ZN2FS4ext28m_BackupE@Base 22.04.3
 _ZN2FS4ext28m_CreateE@Base 22.04.3
 _ZN2FS4ext28m_ShrinkE@Base 22.04.3
 _ZN2FS4ext29m_GetUUIDE@Base 22.04.3
 _ZN2FS4ext29m_GetUsedE@Base 22.04.3
 _ZN2FS4ext2C1ExxxRK7QStringRK4QMapIS1_8QVariantEN10FileSystem4TypeE@Base 22.04.3
 _ZN2FS4ext2C2ExxxRK7QStringRK4QMapIS1_8QVariantEN10FileSystem4TypeE@Base 22.04.3
 _ZN2FS4ext36createER6ReportRK7QString@Base 22.04.3
 _ZN2FS4ext3C1ExxxRK7QStringRK4QMapIS1_8QVariantE@Base 22.04.3
 _ZN2FS4ext3C2ExxxRK7QStringRK4QMapIS1_8QVariantE@Base 22.04.3
 _ZN2FS4ext46createER6ReportRK7QString@Base 22.04.3
 _ZN2FS4ext4C1ExxxRK7QStringRK4QMapIS1_8QVariantE@Base 22.04.3
 _ZN2FS4ext4C2ExxxRK7QStringRK4QMapIS1_8QVariantE@Base 22.04.3
 _ZN2FS4f2fs10m_GetLabelE@Base 22.04.3
 _ZN2FS4f2fs10m_SetLabelE@Base 22.04.3
 _ZN2FS4f2fs10writeLabelER6ReportRK7QStringS5_@Base 23.08.2
 _ZN2FS4f2fs12m_UpdateUUIDE@Base 22.04.3
 _ZN2FS4f2fs4initEv@Base 22.04.3
 _ZN2FS4f2fs6createER6ReportRK7QString@Base 22.04.3
 _ZN2FS4f2fs6m_CopyE@Base 22.04.3
 _ZN2FS4f2fs6m_GrowE@Base 22.04.3
 _ZN2FS4f2fs6m_MoveE@Base 22.04.3
 _ZN2FS4f2fs7m_CheckE@Base 22.04.3
 _ZN2FS4f2fs8m_BackupE@Base 22.04.3
 _ZN2FS4f2fs8m_CreateE@Base 22.04.3
 _ZN2FS4f2fs8m_ShrinkE@Base 22.04.3
 _ZN2FS4f2fs9m_GetUUIDE@Base 22.04.3
 _ZN2FS4f2fs9m_GetUsedE@Base 22.04.3
 _ZN2FS4f2fsC1ExxxRK7QStringRK4QMapIS1_8QVariantE@Base 22.04.3
 _ZN2FS4f2fsC2ExxxRK7QStringRK4QMapIS1_8QVariantE@Base 22.04.3
 _ZN2FS4hpfs10m_GetLabelE@Base 22.04.3
 _ZN2FS4hpfs10m_SetLabelE@Base 22.04.3
 _ZN2FS4hpfs12m_UpdateUUIDE@Base 22.04.3
 _ZN2FS4hpfs6m_CopyE@Base 22.04.3
 _ZN2FS4hpfs6m_GrowE@Base 22.04.3
 _ZN2FS4hpfs6m_MoveE@Base 22.04.3
 _ZN2FS4hpfs7m_CheckE@Base 22.04.3
 _ZN2FS4hpfs8m_BackupE@Base 22.04.3
 _ZN2FS4hpfs8m_CreateE@Base 22.04.3
 _ZN2FS4hpfs8m_ShrinkE@Base 22.04.3
 _ZN2FS4hpfs9m_GetUUIDE@Base 22.04.3
 _ZN2FS4hpfs9m_GetUsedE@Base 22.04.3
 _ZN2FS4hpfsC1ExxxRK7QStringRK4QMapIS1_8QVariantE@Base 22.04.3
 _ZN2FS4hpfsC2ExxxRK7QStringRK4QMapIS1_8QVariantE@Base 22.04.3
 _ZN2FS4luks10cryptCloseERK7QString@Base 22.04.3
 _ZN2FS4luks10m_GetLabelE@Base 22.04.3
 _ZN2FS4luks10m_SetLabelE@Base 22.04.3
 _ZN2FS4luks10setMountedEb@Base 22.04.3
 _ZN2FS4luks10writeLabelER6ReportRK7QStringS5_@Base 22.04.3
 _ZN2FS4luks11getLuksInfoERK7QString@Base 22.04.3
 _ZN2FS4luks12m_UpdateUUIDE@Base 22.04.3
 _ZN2FS4luks12setCryptOpenEb@Base 22.04.3
 _ZN2FS4luks13getMapperNameERK7QString@Base 22.04.3
 _ZN2FS4luks13setPassphraseERK7QString@Base 22.04.3
 _ZN2FS4luks14canEncryptTypeEN10FileSystem4TypeE@Base 22.04.3
 _ZN2FS4luks14setPayloadSizeEv@Base 22.04.3
 _ZN2FS4luks19loadInnerFileSystemERK7QString@Base 22.04.3
 _ZN2FS4luks21createInnerFileSystemEN10FileSystem4TypeE@Base 22.04.3
 _ZN2FS4luks25execChangePosixPermissionER6ReportRK7QString@Base 24.05.2
 _ZN2FS4luks4initEv@Base 22.04.3
 _ZN2FS4luks4scanERK7QString@Base 22.04.3
 _ZN2FS4luks5mountER6ReportRK7QStringS5_@Base 22.04.3
 _ZN2FS4luks6createER6ReportRK7QString@Base 22.04.3
 _ZN2FS4luks6m_CopyE@Base 22.04.3
 _ZN2FS4luks6m_GrowE@Base 22.04.3
 _ZN2FS4luks6m_MoveE@Base 22.04.3
 _ZN2FS4luks7m_CheckE@Base 22.04.3
 _ZN2FS4luks7unmountER6ReportRK7QString@Base 22.04.3
 _ZN2FS4luks8initLUKSEv@Base 22.04.3
 _ZN2FS4luks8m_BackupE@Base 22.04.3
 _ZN2FS4luks8m_CreateE@Base 22.04.3
 _ZN2FS4luks8m_ShrinkE@Base 22.04.3
 _ZN2FS4luks9cryptOpenEP7QWidgetRK7QString@Base 22.04.3
 _ZN2FS4luks9m_GetUUIDE@Base 22.04.3
 _ZN2FS4luks9m_GetUsedE@Base 22.04.3
 _ZN2FS4luksC1ExxxRK7QStringRK4QMapIS1_8QVariantEN10FileSystem4TypeE@Base 22.04.3
 _ZN2FS4luksC2ExxxRK7QStringRK4QMapIS1_8QVariantEN10FileSystem4TypeE@Base 22.04.3
 _ZN2FS4luksD0Ev@Base 22.04.3
 _ZN2FS4luksD1Ev@Base 22.04.3
 _ZN2FS4luksD2Ev@Base 22.04.3
 _ZN2FS4ntfs10m_GetLabelE@Base 22.04.3
 _ZN2FS4ntfs10m_SetLabelE@Base 22.04.3
 _ZN2FS4ntfs10writeLabelER6ReportRK7QStringS5_@Base 22.04.3
 _ZN2FS4ntfs12m_UpdateUUIDE@Base 22.04.3
 _ZN2FS4ntfs4initEv@Base 22.04.3
 _ZN2FS4ntfs6createER6ReportRK7QString@Base 22.04.3
 _ZN2FS4ntfs6m_CopyE@Base 22.04.3
 _ZN2FS4ntfs6m_GrowE@Base 22.04.3
 _ZN2FS4ntfs6m_MoveE@Base 22.04.3
 _ZN2FS4ntfs7m_CheckE@Base 22.04.3
 _ZN2FS4ntfs8m_BackupE@Base 22.04.3
 _ZN2FS4ntfs8m_CreateE@Base 22.04.3
 _ZN2FS4ntfs8m_ShrinkE@Base 22.04.3
 _ZN2FS4ntfs9m_GetUUIDE@Base 22.04.3
 _ZN2FS4ntfs9m_GetUsedE@Base 22.04.3
 _ZN2FS4ntfsC1ExxxRK7QStringRK4QMapIS1_8QVariantE@Base 22.04.3
 _ZN2FS4ntfsC2ExxxRK7QStringRK4QMapIS1_8QVariantE@Base 22.04.3
 _ZN2FS5btrfs10m_GetLabelE@Base 22.04.3
 _ZN2FS5btrfs10m_SetLabelE@Base 22.04.3
 _ZN2FS5btrfs10writeLabelER6ReportRK7QStringS5_@Base 22.04.3
 _ZN2FS5btrfs12m_UpdateUUIDE@Base 22.04.3
 _ZN2FS5btrfs16writeLabelOnlineER6ReportRK7QStringS5_S5_@Base 22.04.3
 _ZN2FS5btrfs4initEv@Base 22.04.3
 _ZN2FS5btrfs6createER6ReportRK7QString@Base 22.04.3
 _ZN2FS5btrfs6m_CopyE@Base 22.04.3
 _ZN2FS5btrfs6m_GrowE@Base 22.04.3
 _ZN2FS5btrfs6m_MoveE@Base 22.04.3
 _ZN2FS5btrfs7m_CheckE@Base 22.04.3
 _ZN2FS5btrfs8m_BackupE@Base 22.04.3
 _ZN2FS5btrfs8m_CreateE@Base 22.04.3
 _ZN2FS5btrfs8m_ShrinkE@Base 22.04.3
 _ZN2FS5btrfs9m_GetUUIDE@Base 22.04.3
 _ZN2FS5btrfs9m_GetUsedE@Base 22.04.3
 _ZN2FS5btrfsC1ExxxRK7QStringRK4QMapIS1_8QVariantE@Base 22.04.3
 _ZN2FS5btrfsC2ExxxRK7QStringRK4QMapIS1_8QVariantE@Base 22.04.3
 _ZN2FS5exfat10exfatUtilsE@Base 22.04.3
 _ZN2FS5exfat10m_GetLabelE@Base 22.04.3
 _ZN2FS5exfat10m_SetLabelE@Base 22.04.3
 _ZN2FS5exfat10writeLabelER6ReportRK7QStringS5_@Base 22.04.3
 _ZN2FS5exfat12m_UpdateUUIDE@Base 22.04.3
 _ZN2FS5exfat4initEv@Base 22.04.3
 _ZN2FS5exfat6createER6ReportRK7QString@Base 22.04.3
 _ZN2FS5exfat6m_CopyE@Base 22.04.3
 _ZN2FS5exfat6m_GrowE@Base 22.04.3
 _ZN2FS5exfat6m_MoveE@Base 22.04.3
 _ZN2FS5exfat7m_CheckE@Base 22.04.3
 _ZN2FS5exfat8m_BackupE@Base 22.04.3
 _ZN2FS5exfat8m_CreateE@Base 22.04.3
 _ZN2FS5exfat8m_ShrinkE@Base 22.04.3
 _ZN2FS5exfat9m_GetUUIDE@Base 22.04.3
 _ZN2FS5exfat9m_GetUsedE@Base 22.04.3
 _ZN2FS5exfatC1ExxxRK7QStringRK4QMapIS1_8QVariantE@Base 22.04.3
 _ZN2FS5exfatC2ExxxRK7QStringRK4QMapIS1_8QVariantE@Base 22.04.3
 _ZN2FS5fat1210m_GetLabelE@Base 22.04.3
 _ZN2FS5fat1210m_SetLabelE@Base 22.04.3
 _ZN2FS5fat1210writeLabelER6ReportRK7QStringS5_@Base 22.04.3
 _ZN2FS5fat1212m_UpdateUUIDE@Base 22.04.3
 _ZN2FS5fat1217createWithFatSizeER6ReportRK7QStringi@Base 22.04.3
 _ZN2FS5fat124initEv@Base 22.04.3
 _ZN2FS5fat126createER6ReportRK7QString@Base 22.04.3
 _ZN2FS5fat126m_CopyE@Base 22.04.3
 _ZN2FS5fat126m_GrowE@Base 22.04.3
 _ZN2FS5fat126m_MoveE@Base 22.04.3
 _ZN2FS5fat127m_CheckE@Base 22.04.3
 _ZN2FS5fat128m_BackupE@Base 22.04.3
 _ZN2FS5fat128m_CreateE@Base 22.04.3
 _ZN2FS5fat128m_ShrinkE@Base 22.04.3
 _ZN2FS5fat129m_GetUUIDE@Base 22.04.3
 _ZN2FS5fat129m_GetUsedE@Base 22.04.3
 _ZN2FS5fat12C1ExxxRK7QStringRK4QMapIS1_8QVariantEN10FileSystem4TypeE@Base 22.04.3
 _ZN2FS5fat12C2ExxxRK7QStringRK4QMapIS1_8QVariantEN10FileSystem4TypeE@Base 22.04.3
 _ZN2FS5fat164initEv@Base 22.04.3
 _ZN2FS5fat166createER6ReportRK7QString@Base 22.04.3
 _ZN2FS5fat16C1ExxxRK7QStringRK4QMapIS1_8QVariantEN10FileSystem4TypeE@Base 22.04.3
 _ZN2FS5fat16C2ExxxRK7QStringRK4QMapIS1_8QVariantEN10FileSystem4TypeE@Base 22.04.3
 _ZN2FS5fat326createER6ReportRK7QString@Base 22.04.3
 _ZN2FS5fat32C1ExxxRK7QStringRK4QMapIS1_8QVariantE@Base 22.04.3
 _ZN2FS5fat32C2ExxxRK7QStringRK4QMapIS1_8QVariantE@Base 22.04.3
 _ZN2FS5luks211keyLocationEv@Base 22.04.3
 _ZN2FS5luks26createER6ReportRK7QString@Base 22.04.3
 _ZN2FS5luks2C1ExxxRK7QStringRK4QMapIS1_8QVariantE@Base 22.04.3
 _ZN2FS5luks2C2ExxxRK7QStringRK4QMapIS1_8QVariantE@Base 22.04.3
 _ZN2FS5luks2D0Ev@Base 22.04.3
 _ZN2FS5luks2D1Ev@Base 22.04.3
 _ZN2FS5luks2D2Ev@Base 22.04.3
 _ZN2FS5minix10m_GetLabelE@Base 22.04.3
 _ZN2FS5minix4initEv@Base 22.04.3
 _ZN2FS5minix6createER6ReportRK7QString@Base 22.04.3
 _ZN2FS5minix6m_CopyE@Base 22.04.3
 _ZN2FS5minix6m_MoveE@Base 22.04.3
 _ZN2FS5minix7m_CheckE@Base 22.04.3
 _ZN2FS5minix8m_BackupE@Base 22.04.3
 _ZN2FS5minix8m_CreateE@Base 22.04.3
 _ZN2FS5minix8m_ShrinkE@Base 22.04.3
 _ZN2FS5minix9m_GetUsedE@Base 22.04.3
 _ZN2FS5minixC1ExxxRK7QStringRK4QMapIS1_8QVariantE@Base 22.04.3
 _ZN2FS5minixC2ExxxRK7QStringRK4QMapIS1_8QVariantE@Base 22.04.3
 _ZN2FS5ocfs210m_GetLabelE@Base 22.04.3
 _ZN2FS5ocfs210m_SetLabelE@Base 22.04.3
 _ZN2FS5ocfs210writeLabelER6ReportRK7QStringS5_@Base 22.04.3
 _ZN2FS5ocfs212m_UpdateUUIDE@Base 22.04.3
 _ZN2FS5ocfs24initEv@Base 22.04.3
 _ZN2FS5ocfs26createER6ReportRK7QString@Base 22.04.3
 _ZN2FS5ocfs26m_CopyE@Base 22.04.3
 _ZN2FS5ocfs26m_GrowE@Base 22.04.3
 _ZN2FS5ocfs26m_MoveE@Base 22.04.3
 _ZN2FS5ocfs27m_CheckE@Base 22.04.3
 _ZN2FS5ocfs28m_BackupE@Base 22.04.3
 _ZN2FS5ocfs28m_CreateE@Base 22.04.3
 _ZN2FS5ocfs28m_ShrinkE@Base 22.04.3
 _ZN2FS5ocfs29m_GetUUIDE@Base 22.04.3
 _ZN2FS5ocfs29m_GetUsedE@Base 22.04.3
 _ZN2FS5ocfs2C1ExxxRK7QStringRK4QMapIS1_8QVariantE@Base 22.04.3
 _ZN2FS5ocfs2C2ExxxRK7QStringRK4QMapIS1_8QVariantE@Base 22.04.3
 _ZN2FS6nilfs210m_GetLabelE@Base 22.04.3
 _ZN2FS6nilfs210m_SetLabelE@Base 22.04.3
 _ZN2FS6nilfs210writeLabelER6ReportRK7QStringS5_@Base 22.04.3
 _ZN2FS6nilfs212m_UpdateUUIDE@Base 22.04.3
 _ZN2FS6nilfs24initEv@Base 22.04.3
 _ZN2FS6nilfs26createER6ReportRK7QString@Base 22.04.3
 _ZN2FS6nilfs26m_CopyE@Base 22.04.3
 _ZN2FS6nilfs26m_GrowE@Base 22.04.3
 _ZN2FS6nilfs26m_MoveE@Base 22.04.3
 _ZN2FS6nilfs27m_CheckE@Base 22.04.3
 _ZN2FS6nilfs28m_BackupE@Base 22.04.3
 _ZN2FS6nilfs28m_CreateE@Base 22.04.3
 _ZN2FS6nilfs28m_ShrinkE@Base 22.04.3
 _ZN2FS6nilfs29m_GetUUIDE@Base 22.04.3
 _ZN2FS6nilfs29m_GetUsedE@Base 22.04.3
 _ZN2FS6nilfs2C1ExxxRK7QStringRK4QMapIS1_8QVariantE@Base 22.04.3
 _ZN2FS6nilfs2C2ExxxRK7QStringRK4QMapIS1_8QVariantE@Base 22.04.3
 _ZN2FS7hfsplus10m_GetLabelE@Base 22.04.3
 _ZN2FS7hfsplus4initEv@Base 22.04.3
 _ZN2FS7hfsplus6createER6ReportRK7QString@Base 22.04.3
 _ZN2FS7hfsplus6m_CopyE@Base 22.04.3
 _ZN2FS7hfsplus6m_MoveE@Base 22.04.3
 _ZN2FS7hfsplus7m_CheckE@Base 22.04.3
 _ZN2FS7hfsplus8m_BackupE@Base 22.04.3
 _ZN2FS7hfsplus8m_CreateE@Base 22.04.3
 _ZN2FS7hfsplus8m_ShrinkE@Base 22.04.3
 _ZN2FS7hfsplus9m_GetUsedE@Base 22.04.3
 _ZN2FS7hfsplusC1ExxxRK7QStringRK4QMapIS1_8QVariantE@Base 22.04.3
 _ZN2FS7hfsplusC2ExxxRK7QStringRK4QMapIS1_8QVariantE@Base 22.04.3
 _ZN2FS7iso9660C1ExxxRK7QStringRK4QMapIS1_8QVariantE@Base 22.04.3
 _ZN2FS7iso9660C2ExxxRK7QStringRK4QMapIS1_8QVariantE@Base 22.04.3
 _ZN2FS7lvm2_pv10getTotalPEERK7QString@Base 22.04.3
 _ZN2FS7lvm2_pv10getpvFieldERK7QStringS3_@Base 22.04.3
 _ZN2FS7lvm2_pv10m_GetLabelE@Base 22.04.3
 _ZN2FS7lvm2_pv10m_SetLabelE@Base 22.04.3
 _ZN2FS7lvm2_pv11getPVinNodeEPK13PartitionNode@Base 22.04.3
 _ZN2FS7lvm2_pv12m_UpdateUUIDE@Base 22.04.3
 _ZN2FS7lvm2_pv14getAllocatedPEERK7QString@Base 22.04.3
 _ZN2FS7lvm2_pv4initEv@Base 22.04.3
 _ZN2FS7lvm2_pv4scanERK7QString@Base 22.04.3
 _ZN2FS7lvm2_pv5mountER6ReportRK7QStringS5_@Base 22.04.3
 _ZN2FS7lvm2_pv6createER6ReportRK7QString@Base 22.04.3
 _ZN2FS7lvm2_pv6getPVsERK5QListIP6DeviceE@Base 22.04.3
 _ZN2FS7lvm2_pv6m_CopyE@Base 22.04.3
 _ZN2FS7lvm2_pv6m_GrowE@Base 22.04.3
 _ZN2FS7lvm2_pv6m_MoveE@Base 22.04.3
 _ZN2FS7lvm2_pv7m_CheckE@Base 22.04.3
 _ZN2FS7lvm2_pv7unmountER6ReportRK7QString@Base 22.04.3
 _ZN2FS7lvm2_pv8m_BackupE@Base 22.04.3
 _ZN2FS7lvm2_pv8m_CreateE@Base 22.04.3
 _ZN2FS7lvm2_pv8m_ShrinkE@Base 22.04.3
 _ZN2FS7lvm2_pv9getPESizeERK7QString@Base 22.04.3
 _ZN2FS7lvm2_pv9getVGNameERK7QString@Base 22.04.3
 _ZN2FS7lvm2_pv9m_GetUUIDE@Base 22.04.3
 _ZN2FS7lvm2_pv9m_GetUsedE@Base 22.04.3
 _ZN2FS7lvm2_pvC1ExxxRK7QStringRK4QMapIS1_8QVariantE@Base 22.04.3
 _ZN2FS7lvm2_pvC2ExxxRK7QStringRK4QMapIS1_8QVariantE@Base 22.04.3
 _ZN2FS7reiser410m_GetLabelE@Base 22.04.3
 _ZN2FS7reiser44initEv@Base 22.04.3
 _ZN2FS7reiser46createER6ReportRK7QString@Base 22.04.3
 _ZN2FS7reiser46m_CopyE@Base 22.04.3
 _ZN2FS7reiser46m_MoveE@Base 22.04.3
 _ZN2FS7reiser47m_CheckE@Base 22.04.3
 _ZN2FS7reiser48m_BackupE@Base 22.04.3
 _ZN2FS7reiser48m_CreateE@Base 22.04.3
 _ZN2FS7reiser49m_GetUsedE@Base 22.04.3
 _ZN2FS7reiser4C1ExxxRK7QStringRK4QMapIS1_8QVariantE@Base 22.04.3
 _ZN2FS7reiser4C2ExxxRK7QStringRK4QMapIS1_8QVariantE@Base 22.04.3
 _ZN2FS7unknown6m_CopyE@Base 22.04.3
 _ZN2FS7unknown6m_MoveE@Base 22.04.3
 _ZN2FS7unknownC1ExxxRK7QStringRK4QMapIS1_8QVariantE@Base 22.04.3
 _ZN2FS7unknownC2ExxxRK7QStringRK4QMapIS1_8QVariantE@Base 22.04.3
 _ZN2FS8bcachefs10m_GetLabelE@Base 24.05.2
 _ZN2FS8bcachefs10m_SetLabelE@Base 24.05.2
 _ZN2FS8bcachefs12m_UpdateUUIDE@Base 24.05.2
 _ZN2FS8bcachefs15createWithLabelER6ReportRK7QStringS5_@Base 24.05.2
 _ZN2FS8bcachefs4initEv@Base 24.05.2
 _ZN2FS8bcachefs6createER6ReportRK7QString@Base 24.05.2
 _ZN2FS8bcachefs6m_CopyE@Base 24.05.2
 _ZN2FS8bcachefs6m_GrowE@Base 24.05.2
 _ZN2FS8bcachefs6m_MoveE@Base 24.05.2
 _ZN2FS8bcachefs7m_CheckE@Base 24.05.2
 _ZN2FS8bcachefs8m_BackupE@Base 24.05.2
 _ZN2FS8bcachefs8m_CreateE@Base 24.05.2
 _ZN2FS8bcachefs8m_ShrinkE@Base 24.05.2
 _ZN2FS8bcachefs9m_GetUUIDE@Base 24.05.2
 _ZN2FS8bcachefs9m_GetUsedE@Base 24.05.2
 _ZN2FS8bcachefsC1ExxxRK7QStringRK4QMapIS1_8QVariantE@Base 24.05.2
 _ZN2FS8bcachefsC2ExxxRK7QStringRK4QMapIS1_8QVariantE@Base 24.05.2
 _ZN2FS8extended6createER6ReportRK7QString@Base 22.04.3
 _ZN2FS8extended6m_GrowE@Base 22.04.3
 _ZN2FS8extended6m_MoveE@Base 22.04.3
 _ZN2FS8extended8m_CreateE@Base 22.04.3
 _ZN2FS8extended8m_ShrinkE@Base 22.04.3
 _ZN2FS8extendedC1ExxxRK7QStringRK4QMapIS1_8QVariantE@Base 22.04.3
 _ZN2FS8extendedC2ExxxRK7QStringRK4QMapIS1_8QVariantE@Base 22.04.3
 _ZN2FS8reiserfs10m_GetLabelE@Base 22.04.3
 _ZN2FS8reiserfs10m_SetLabelE@Base 22.04.3
 _ZN2FS8reiserfs10writeLabelER6ReportRK7QStringS5_@Base 22.04.3
 _ZN2FS8reiserfs12m_UpdateUUIDE@Base 22.04.3
 _ZN2FS8reiserfs4initEv@Base 22.04.3
 _ZN2FS8reiserfs6createER6ReportRK7QString@Base 22.04.3
 _ZN2FS8reiserfs6m_CopyE@Base 22.04.3
 _ZN2FS8reiserfs6m_GrowE@Base 22.04.3
 _ZN2FS8reiserfs6m_MoveE@Base 22.04.3
 _ZN2FS8reiserfs7m_CheckE@Base 22.04.3
 _ZN2FS8reiserfs8m_BackupE@Base 22.04.3
 _ZN2FS8reiserfs8m_CreateE@Base 22.04.3
 _ZN2FS8reiserfs8m_ShrinkE@Base 22.04.3
 _ZN2FS8reiserfs9m_GetUUIDE@Base 22.04.3
 _ZN2FS8reiserfs9m_GetUsedE@Base 22.04.3
 _ZN2FS8reiserfsC1ExxxRK7QStringRK4QMapIS1_8QVariantE@Base 22.04.3
 _ZN2FS8reiserfsC2ExxxRK7QStringRK4QMapIS1_8QVariantE@Base 22.04.3
 _ZN2FS9bitlocker6m_CopyE@Base 22.04.3
 _ZN2FS9bitlocker6m_MoveE@Base 22.04.3
 _ZN2FS9bitlocker8m_BackupE@Base 22.04.3
 _ZN2FS9bitlockerC1ExxxRK7QStringRK4QMapIS1_8QVariantE@Base 22.04.3
 _ZN2FS9bitlockerC2ExxxRK7QStringRK4QMapIS1_8QVariantE@Base 22.04.3
 _ZN2FS9linuxswap10m_GetLabelE@Base 22.04.3
 _ZN2FS9linuxswap10m_SetLabelE@Base 22.04.3
 _ZN2FS9linuxswap10writeLabelER6ReportRK7QStringS5_@Base 22.04.3
 _ZN2FS9linuxswap12m_UpdateUUIDE@Base 22.04.3
 _ZN2FS9linuxswap4initEv@Base 22.04.3
 _ZN2FS9linuxswap5mountER6ReportRK7QStringS5_@Base 22.04.3
 _ZN2FS9linuxswap6createER6ReportRK7QString@Base 22.04.3
 _ZN2FS9linuxswap6m_CopyE@Base 22.04.3
 _ZN2FS9linuxswap6m_GrowE@Base 22.04.3
 _ZN2FS9linuxswap6m_MoveE@Base 22.04.3
 _ZN2FS9linuxswap7unmountER6ReportRK7QString@Base 22.04.3
 _ZN2FS9linuxswap8m_CreateE@Base 22.04.3
 _ZN2FS9linuxswap8m_ShrinkE@Base 22.04.3
 _ZN2FS9linuxswap9m_GetUUIDE@Base 22.04.3
 _ZN2FS9linuxswap9m_GetUsedE@Base 22.04.3
 _ZN2FS9linuxswapC1ExxxRK7QStringRK4QMapIS1_8QVariantE@Base 22.04.3
 _ZN2FS9linuxswapC2ExxxRK7QStringRK4QMapIS1_8QVariantE@Base 22.04.3
 _ZN30DeactivateVolumeGroupOperation15isDeactivatableEPK19VolumeManagerDevice@Base 22.04.3
 _ZN30DeactivateVolumeGroupOperation4undoEv@Base 22.04.3
 _ZN30DeactivateVolumeGroupOperation7previewEv@Base 22.04.3
 _ZN30DeactivateVolumeGroupOperationC1ER19VolumeManagerDevice@Base 22.04.3
 _ZN30DeactivateVolumeGroupOperationC2ER19VolumeManagerDevice@Base 22.04.3
 _ZN3Job10copyBlocksER6ReportR10CopyTargetR10CopySource@Base 22.04.3
 _ZN3Job10jobStartedER6Report@Base 22.04.3
 _ZN3Job11jobFinishedER6Reportb@Base 22.04.3
 _ZN3Job11qt_metacallEN11QMetaObject4CallEiPPv@Base 22.04.3
 _ZN3Job11qt_metacastEPKc@Base 22.04.3
 _ZN3Job12emitProgressEi@Base 22.04.3
 _ZN3Job12updateReportERK7QString@Base 22.04.3
 _ZN3Job16staticMetaObjectE@Base 22.04.3
 _ZN3Job18rollbackCopyBlocksER6ReportR10CopyTargetR10CopySource@Base 22.04.3
 _ZN3Job7startedEv@Base 22.04.3
 _ZN3Job8finishedEv@Base 22.04.3
 _ZN3Job8progressEi@Base 22.04.3
 _ZN3JobC1Ev@Base 22.04.3
 _ZN3JobC2Ev@Base 22.04.3
 _ZN3LVM6pvList6m_listE@Base 22.04.3
 _ZN3LogD1Ev@Base 22.04.3
 _ZN3LogD2Ev@Base 22.04.3
 _ZN6Device11setIconNameERK7QString@Base 22.04.3
 _ZN6Device11smartStatusEv@Base 22.04.3
 _ZN6Device14partitionTableEv@Base 22.04.3
 _ZN6Device17setPartitionTableEP14PartitionTable@Base 22.04.3
 _ZN6Device4nameEv@Base 22.04.3
 _ZN6DeviceC1ERKS_@Base 22.04.3
 _ZN6DeviceC1ESt10shared_ptrI13DevicePrivateERK7QStringS5_xxS5_NS_4TypeE@Base 22.04.3
 _ZN6DeviceC2ERKS_@Base 22.04.3
 _ZN6DeviceC2ESt10shared_ptrI13DevicePrivateERK7QStringS5_xxS5_NS_4TypeE@Base 22.04.3
 _ZN6DeviceD0Ev@Base 22.04.3
 _ZN6DeviceD1Ev@Base 22.04.3
 _ZN6DeviceD2Ev@Base 22.04.3
 _ZN6Report11qt_metacallEN11QMetaObject4CallEiPPv@Base 22.04.3
 _ZN6Report11qt_metacastEPKc@Base 22.04.3
 _ZN6Report13outputChangedEv@Base 22.04.3
 _ZN6Report16staticMetaObjectE@Base 22.04.3
 _ZN6Report17emitOutputChangedEv@Base 22.04.3
 _ZN6Report4lineEv@Base 22.04.3
 _ZN6Report4rootEv@Base 22.04.3
 _ZN6Report8newChildERK7QString@Base 22.04.3
 _ZN6Report9addOutputERK7QString@Base 22.04.3
 _ZN6ReportC1EPS_RK7QString@Base 22.04.3
 _ZN6ReportC2EPS_RK7QString@Base 22.04.3
 _ZN6ReportD0Ev@Base 22.04.3
 _ZN6ReportD1Ev@Base 22.04.3
 _ZN6ReportD2Ev@Base 22.04.3
 _ZN8Capacity10unitFactorENS_4UnitES0_@Base 22.04.3
 _ZN8Capacity14formatByteSizeEdi@Base 22.04.3
 _ZN8Capacity15m_InvalidStringE@Base 22.04.3
 _ZN8Capacity8unitNameENS_4UnitEx@Base 22.04.3
 _ZN8CapacityC1ERK6Device@Base 22.04.3
 _ZN8CapacityC1ERK9PartitionNS_4TypeE@Base 22.04.3
 _ZN8CapacityC1Ex@Base 22.04.3
 _ZN8CapacityC2ERK6Device@Base 22.04.3
 _ZN8CapacityC2ERK9PartitionNS_4TypeE@Base 22.04.3
 _ZN8CapacityC2Ex@Base 22.04.3
 _ZN9GlobalLog10newMessageEN3Log5LevelERK7QString@Base 22.04.3
 _ZN9GlobalLog11qt_metacallEN11QMetaObject4CallEiPPv@Base 22.04.3
 _ZN9GlobalLog11qt_metacastEPKc@Base 22.04.3
 _ZN9GlobalLog16staticMetaObjectE@Base 22.04.3
 _ZN9GlobalLog5flushEN3Log5LevelE@Base 22.04.3
 _ZN9GlobalLog8instanceEv@Base 22.04.3
 _ZN9LvmDevice10activateLVERK7QString@Base 22.04.3
 _ZN9LvmDevice10activateVGER6ReportRKS_@Base 22.04.3
 _ZN9LvmDevice10getTotalLEERK7QString@Base 22.04.3
 _ZN9LvmDevice10getTotalPEERK7QString@Base 22.04.3
 _ZN9LvmDevice10s_DirtyPVsE@Base 22.04.3
 _ZN9LvmDevice11s_OrphanPVsE@Base 22.04.3
 _ZN9LvmDevice12deactivateLVER6ReportRK9Partition@Base 22.04.3
 _ZN9LvmDevice12deactivateVGER6ReportRKS_@Base 22.04.3
 _ZN9LvmDevice13scanSystemLVMER5QListIP6DeviceE@Base 22.04.3
 _ZN9LvmDevice14getAllocatedPEERK7QString@Base 22.04.3
 _ZN9LvmDevice14initPartitionsEv@Base 22.04.3
 _ZN9LvmDevice15physicalVolumesEv@Base 22.04.3
 _ZN9LvmDevice16createLVSnapshotER6ReportR9PartitionRK7QStringx@Base 22.04.3
 _ZN9LvmDevice6getLVsERK7QString@Base 22.04.3
 _ZN9LvmDevice6getVGsEv@Base 22.04.3
 _ZN9LvmDevice6movePVER6ReportRK7QStringRK5QListIS2_E@Base 24.05.2
 _ZN9LvmDevice7getUUIDERK7QString@Base 22.04.3
 _ZN9LvmDevice8createLVER6ReportRS_R9PartitionRK7QString@Base 22.04.3
 _ZN9LvmDevice8createVGER6Report7QStringRK5QListIPK9PartitionEi@Base 24.05.2
 _ZN9LvmDevice8getFieldERK7QStringS2_@Base 22.04.3
 _ZN9LvmDevice8insertPVER6ReportRS_RK7QString@Base 22.04.3
 _ZN9LvmDevice8removeLVER6ReportRS_R9Partition@Base 22.04.3
 _ZN9LvmDevice8removePVER6ReportRS_RK7QString@Base 22.04.3
 _ZN9LvmDevice8removeVGER6ReportRS_@Base 22.04.3
 _ZN9LvmDevice8resizeLVER6ReportR9Partition@Base 22.04.3
 _ZN9LvmDevice9getFreePEERK7QString@Base 22.04.3
 _ZN9LvmDevice9getPeSizeERK7QString@Base 22.04.3
 _ZN9LvmDeviceC1ERK7QStringS2_@Base 22.04.3
 _ZN9LvmDeviceC2ERK7QStringS2_@Base 22.04.3
 _ZN9LvmDeviceD0Ev@Base 22.04.3
 _ZN9LvmDeviceD1Ev@Base 22.04.3
 _ZN9LvmDeviceD2Ev@Base 22.04.3
 _ZN9Operation10jobStartedEP3JobPS_@Base 22.04.3
 _ZN9Operation11jobFinishedEP3JobPS_@Base 22.04.3
 _ZN9Operation11qt_metacallEN11QMetaObject4CallEiPPv@Base 22.04.3
 _ZN9Operation11qt_metacastEPKc@Base 22.04.3
 _ZN9Operation12onJobStartedEv@Base 22.04.3
 _ZN9Operation13onJobFinishedEv@Base 22.04.3
 _ZN9Operation15setProgressBaseEi@Base 22.04.3
 _ZN9Operation16staticMetaObjectE@Base 22.04.3
 _ZN9Operation22insertPreviewPartitionER6DeviceR9Partition@Base 22.04.3
 _ZN9Operation22removePreviewPartitionER6DeviceR9Partition@Base 22.04.3
 _ZN9Operation4jobsEv@Base 22.04.3
 _ZN9Operation6addJobEP3Job@Base 22.04.3
 _ZN9Operation7executeER6Report@Base 22.04.3
 _ZN9Operation8progressEi@Base 22.04.3
 _ZN9Operation9setStatusENS_15OperationStatusE@Base 22.04.3
 _ZN9OperationC1Ev@Base 22.04.3
 _ZN9OperationC2Ev@Base 22.04.3
 _ZN9OperationD0Ev@Base 22.04.3
 _ZN9OperationD1Ev@Base 22.04.3
 _ZN9OperationD2Ev@Base 22.04.3
 _ZN9Partition10setMountedEb@Base 22.04.3
 _ZN9Partition13setFileSystemEP10FileSystem@Base 22.04.3
 _ZN9Partition16deleteFileSystemEv@Base 22.04.3
 _ZN9Partition16setPartitionPathERK7QString@Base 22.04.3
 _ZN9Partition20checkChildrenMountedEv@Base 22.04.3
 _ZN9Partition4moveEx@Base 22.04.3
 _ZN9Partition5mountER6Report@Base 22.04.3
 _ZN9Partition7unmountER6Report@Base 22.04.3
 _ZN9PartitionC1EP13PartitionNodeRK6DeviceRK13PartitionRoleP10FileSystemxx7QString6QFlagsIN14PartitionTable4FlagEERKSA_bSE_NS_5StateE@Base 22.04.3
 _ZN9PartitionC1ERKS_P13PartitionNode@Base 22.04.3
 _ZN9PartitionC2EP13PartitionNodeRK6DeviceRK13PartitionRoleP10FileSystemxx7QString6QFlagsIN14PartitionTable4FlagEERKSA_bSE_NS_5StateE@Base 22.04.3
 _ZN9PartitionC2ERKS_P13PartitionNode@Base 22.04.3
 _ZN9PartitionD0Ev@Base 22.04.3
 _ZN9PartitionD1Ev@Base 22.04.3
 _ZN9PartitionD2Ev@Base 22.04.3
 _ZN9PartitionaSERKS_@Base 22.04.3
 _ZNK10DiskDevice12totalSectorsEv@Base 22.04.3
 _ZNK10DiskDevice17logicalSectorSizeEv@Base 22.04.3
 _ZNK10DiskDevice18physicalSectorSizeEv@Base 22.04.3
 _ZNK10FileSystem10lastSectorEv@Base 22.04.3
 _ZNK10FileSystem10mountTitleEv@Base 22.04.3
 _ZNK10FileSystem10sectorSizeEv@Base 22.04.3
 _ZNK10FileSystem10updateUUIDER6ReportRK7QString@Base 22.04.3
 _ZNK10FileSystem11firstSectorEv@Base 22.04.3
 _ZNK10FileSystem11maxCapacityEv@Base 22.04.3
 _ZNK10FileSystem11minCapacityEv@Base 22.04.3
 _ZNK10FileSystem11sectorsUsedEv@Base 22.04.3
 _ZNK10FileSystem12resizeOnlineER6ReportRK7QStringS4_x@Base 22.04.3
 _ZNK10FileSystem12unmountTitleEv@Base 22.04.3
 _ZNK10FileSystem14labelValidatorEP7QObject@Base 22.04.3
 _ZNK10FileSystem14maxLabelLengthEv@Base 22.04.3
 _ZNK10FileSystem15supportToolNameEv@Base 22.04.3
 _ZNK10FileSystem16readUsedCapacityERK7QString@Base 22.04.3
 _ZNK10FileSystem16supportToolFoundEv@Base 22.04.3
 _ZNK10FileSystem16updateBootSectorER6ReportRK7QString@Base 22.04.3
 _ZNK10FileSystem17availableFeaturesEv@Base 22.04.3
 _ZNK10FileSystem20implPosixPermissionsEv@Base 22.04.3
 _ZNK10FileSystem4copyER6ReportRK7QStringS4_@Base 22.04.3
 _ZNK10FileSystem4moveER6ReportRK7QStringx@Base 22.04.3
 _ZNK10FileSystem4nameERK5QListI7QStringE@Base 24.05.2
 _ZNK10FileSystem4typeEv@Base 22.04.3
 _ZNK10FileSystem4uuidEv@Base 22.04.3
 _ZNK10FileSystem5checkER6ReportRK7QString@Base 22.04.3
 _ZNK10FileSystem5labelEv@Base 22.04.3
 _ZNK10FileSystem6backupER6ReportRK6DeviceRK7QStringS7_@Base 22.04.3
 _ZNK10FileSystem6removeER6ReportRK7QString@Base 22.04.3
 _ZNK10FileSystem6resizeER6ReportRK7QStringx@Base 22.04.3
 _ZNK10FileSystem8canMountERK7QStringS2_@Base 22.04.3
 _ZNK10FileSystem8featuresEv@Base 22.04.3
 _ZNK10FileSystem8readUUIDERK7QString@Base 22.04.3
 _ZNK10FileSystem9readLabelERK7QString@Base 22.04.3
 _ZNK10FstabEntry10deviceNodeEv@Base 22.04.3
 _ZNK10FstabEntry10mountPointEv@Base 22.04.3
 _ZNK10FstabEntry10passNumberEv@Base 22.04.3
 _ZNK10FstabEntry13optionsStringEv@Base 22.04.3
 _ZNK10FstabEntry4typeEv@Base 22.04.3
 _ZNK10FstabEntry6fsSpecEv@Base 22.04.3
 _ZNK10FstabEntry7commentEv@Base 22.04.3
 _ZNK10FstabEntry7optionsEv@Base 22.04.3
 _ZNK10FstabEntry8dumpFreqEv@Base 22.04.3
 _ZNK10FstabEntry9entryTypeEv@Base 22.04.3
 _ZNK10PartWidget10metaObjectEv@Base 22.04.3
 _ZNK10PartWidget11activeColorERK6QColor@Base 22.04.3
 _ZNK10PartWidget12drawGradientEP8QPainterRK6QColorRK5QRectb@Base 22.04.3
 _ZNK11CoreBackend10metaObjectEv@Base 22.04.3
 _ZNK12NewOperation11descriptionEv@Base 22.04.3
 _ZNK12NewOperation12newPartitionEv@Base 22.04.3
 _ZNK12NewOperation12targetDeviceEv@Base 22.04.3
 _ZNK12NewOperation7targetsERK6Device@Base 22.04.3
 _ZNK12NewOperation7targetsERK9Partition@Base 22.04.3
 _ZNK12SoftwareRAID10prettyNameEv@Base 22.04.3
 _ZNK12SoftwareRAID10totalChunkEv@Base 22.04.3
 _ZNK12SoftwareRAID11deviceNodesEv@Base 22.04.3
 _ZNK12SoftwareRAID12mappedSectorERK7QStringx@Base 22.04.3
 _ZNK12SoftwareRAID13partitionSizeER7QString@Base 22.04.3
 _ZNK12SoftwareRAID14devicePathListEv@Base 22.04.3
 _ZNK12SoftwareRAID14partitionNodesEv@Base 22.04.3
 _ZNK12SoftwareRAID4uuidEv@Base 22.04.3
 _ZNK12SoftwareRAID6statusEv@Base 22.04.3
 _ZNK12SoftwareRAID9arraySizeEv@Base 22.04.3
 _ZNK12SoftwareRAID9chunkSizeEv@Base 22.04.3
 _ZNK12SoftwareRAID9raidLevelEv@Base 22.04.3
 _ZNK12SoftwareRAIDeqERK6Device@Base 22.04.3
 _ZNK13CopyOperation17updateDescriptionEv@Base 22.04.3
 _ZNK13CopyOperation7targetsERK6Device@Base 22.04.3
 _ZNK13CopyOperation7targetsERK9Partition@Base 22.04.3
 _ZNK13DeviceScanner10metaObjectEv@Base 22.04.3
 _ZNK13PartitionNode11predecessorERK9Partition@Base 22.04.3
 _ZNK13PartitionNode14isChildMountedEv@Base 22.04.3
 _ZNK13PartitionNode19highestMountedChildEv@Base 22.04.3
 _ZNK13PartitionNode21findPartitionBySectorExRK13PartitionRole@Base 22.04.3
 _ZNK13PartitionNode9successorERK9Partition@Base 22.04.3
 _ZNK13PartitionRole8toStringERK5QListI7QStringE@Base 24.05.2
 _ZNK14CheckOperation11descriptionEv@Base 22.04.3
 _ZNK14CheckOperation7targetsERK6Device@Base 22.04.3
 _ZNK14CheckOperation7targetsERK9Partition@Base 22.04.3
 _ZNK14OperationStack10metaObjectEv@Base 22.04.3
 _ZNK14OperationStack8containsEPK9Partition@Base 22.04.3
 _ZNK14PartWidgetBase12childWidgetsEv@Base 22.04.3
 _ZNK14PartWidgetBase16positionChildrenEPK7QWidgetRK5QListIP9PartitionES3_IP10PartWidgetE@Base 22.04.3
 _ZNK14PartitionTable10childRolesERK9Partition@Base 22.04.3
 _ZNK14PartitionTable11freeSectorsEv@Base 22.04.3
 _ZNK14PartitionTable11hasExtendedEv@Base 22.04.3
 _ZNK14PartitionTable12numPrimariesEv@Base 22.04.3
 _ZNK14PartitionTable16freeSectorsAfterERK9Partition@Base 22.04.3
 _ZNK14PartitionTable17freeSectorsBeforeERK9Partition@Base 22.04.3
 _ZNK14PartitionTable8extendedEv@Base 22.04.3
 _ZNK15BackupOperation11descriptionEv@Base 22.04.3
 _ZNK15DeleteOperation11descriptionEv@Base 22.04.3
 _ZNK15DeleteOperation7targetsERK6Device@Base 22.04.3
 _ZNK15DeleteOperation7targetsERK9Partition@Base 22.04.3
 _ZNK15ExternalCommand10metaObjectEv@Base 22.04.3
 _ZNK15ExternalCommand4argsEv@Base 22.04.3
 _ZNK15ExternalCommand6outputEv@Base 22.04.3
 _ZNK15ExternalCommand7commandEv@Base 22.04.3
 _ZNK15ExternalCommand8exitCodeEv@Base 22.04.3
 _ZNK15ExternalCommand9rawOutputEv@Base 22.04.3
 _ZNK15OperationRunner10metaObjectEv@Base 22.04.3
 _ZNK15OperationRunner11descriptionEi@Base 22.04.3
 _ZNK15OperationRunner13numOperationsEv@Base 22.04.3
 _ZNK15OperationRunner7numJobsEv@Base 22.04.3
 _ZNK15ResizeOperation11descriptionEv@Base 22.04.3
 _ZNK15ResizeOperation12resizeActionEv@Base 22.04.3
 _ZNK15ResizeOperation7targetsERK6Device@Base 22.04.3
 _ZNK15ResizeOperation7targetsERK9Partition@Base 22.04.3
 _ZNK16RestoreOperation11descriptionEv@Base 22.04.3
 _ZNK16RestoreOperation7targetsERK6Device@Base 22.04.3
 _ZNK16RestoreOperation7targetsERK9Partition@Base 22.04.3
 _ZNK17PartResizerWidget10metaObjectEv@Base 22.04.3
 _ZNK17PartResizerWidget11handleWidthEv@Base 22.04.3
 _ZNK17PartResizerWidget14checkAlignmentERK9Partitionx@Base 22.04.3
 _ZNK17PartResizerWidget15partWidgetStartEv@Base 22.04.3
 _ZNK17PartResizerWidget15partWidgetWidthEv@Base 22.04.3
 _ZNK17PartResizerWidget15sectorsPerPixelEv@Base 22.04.3
 _ZNK17PartResizerWidget16checkConstraintsExx@Base 22.04.3
 _ZNK17PartResizerWidget17maximumLastSectorEb@Base 22.04.3
 _ZNK17PartResizerWidget17minimumLastSectorEb@Base 22.04.3
 _ZNK17PartResizerWidget18maximumFirstSectorEb@Base 22.04.3
 _ZNK17PartResizerWidget18minimumFirstSectorEb@Base 22.04.3
 _ZNK18CoreBackendManager4listEv@Base 22.04.3
 _ZNK19VolumeManagerDevice20prettyDeviceNodeListEv@Base 22.04.3
 _ZNK21SetPartFlagsOperation11descriptionEv@Base 22.04.3
 _ZNK21SetPartFlagsOperation7targetsERK6Device@Base 22.04.3
 _ZNK21SetPartFlagsOperation7targetsERK9Partition@Base 22.04.3
 _ZNK25CreateFileSystemOperation11descriptionEv@Base 22.04.3
 _ZNK25CreateFileSystemOperation7targetsERK6Device@Base 22.04.3
 _ZNK25CreateFileSystemOperation7targetsERK9Partition@Base 22.04.3
 _ZNK26CreateVolumeGroupOperation11descriptionEv@Base 22.04.3
 _ZNK26CreateVolumeGroupOperation7targetsERK9Partition@Base 22.04.3
 _ZNK26RemoveVolumeGroupOperation11descriptionEv@Base 22.04.3
 _ZNK26ResizeVolumeGroupOperation11descriptionEv@Base 22.04.3
 _ZNK26ResizeVolumeGroupOperation7targetsERK6Device@Base 22.04.3
 _ZNK26ResizeVolumeGroupOperation7targetsERK9Partition@Base 22.04.3
 _ZNK27SetFileSystemLabelOperation11descriptionEv@Base 22.04.3
 _ZNK27SetFileSystemLabelOperation7targetsERK6Device@Base 22.04.3
 _ZNK27SetFileSystemLabelOperation7targetsERK9Partition@Base 22.04.3
 _ZNK29CreatePartitionTableOperation11descriptionEv@Base 22.04.3
 _ZNK29CreatePartitionTableOperation7targetsERK6Device@Base 22.04.3
 _ZNK2FS3hfs11maxCapacityEv@Base 22.04.3
 _ZNK2FS3hfs14maxLabelLengthEv@Base 22.04.3
 _ZNK2FS3hfs15supportToolNameEv@Base 22.04.3
 _ZNK2FS3hfs16supportToolFoundEv@Base 22.04.3
 _ZNK2FS3hfs5checkER6ReportRK7QString@Base 22.04.3
 _ZNK2FS3jfs11maxCapacityEv@Base 22.04.3
 _ZNK2FS3jfs11minCapacityEv@Base 22.04.3
 _ZNK2FS3jfs12resizeOnlineER6ReportRK7QStringS5_x@Base 22.04.3
 _ZNK2FS3jfs14maxLabelLengthEv@Base 22.04.3
 _ZNK2FS3jfs15supportToolNameEv@Base 22.04.3
 _ZNK2FS3jfs16readUsedCapacityERK7QString@Base 22.04.3
 _ZNK2FS3jfs16supportToolFoundEv@Base 22.04.3
 _ZNK2FS3jfs5checkER6ReportRK7QString@Base 22.04.3
 _ZNK2FS3jfs6resizeER6ReportRK7QStringx@Base 22.04.3
 _ZNK2FS3udf10updateUUIDER6ReportRK7QString@Base 22.04.3
 _ZNK2FS3udf11maxCapacityEv@Base 22.04.3
 _ZNK2FS3udf11minCapacityEv@Base 22.04.3
 _ZNK2FS3udf14labelValidatorEP7QObject@Base 22.04.3
 _ZNK2FS3udf14maxLabelLengthEv@Base 22.04.3
 _ZNK2FS3udf15supportToolNameEv@Base 22.04.3
 _ZNK2FS3udf16readUsedCapacityERK7QString@Base 22.04.3
 _ZNK2FS3udf16supportToolFoundEv@Base 22.04.3
 _ZNK2FS3xfs11maxCapacityEv@Base 22.04.3
 _ZNK2FS3xfs11minCapacityEv@Base 22.04.3
 _ZNK2FS3xfs12resizeOnlineER6ReportRK7QStringS5_x@Base 22.04.3
 _ZNK2FS3xfs14maxLabelLengthEv@Base 22.04.3
 _ZNK2FS3xfs15supportToolNameEv@Base 22.04.3
 _ZNK2FS3xfs16readUsedCapacityERK7QString@Base 22.04.3
 _ZNK2FS3xfs16supportToolFoundEv@Base 22.04.3
 _ZNK2FS3xfs4copyER6ReportRK7QStringS5_@Base 22.04.3
 _ZNK2FS3xfs5checkER6ReportRK7QString@Base 22.04.3
 _ZNK2FS3xfs6resizeER6ReportRK7QStringx@Base 22.04.3
 _ZNK2FS3zfs11maxCapacityEv@Base 22.04.3
 _ZNK2FS3zfs11minCapacityEv@Base 22.04.3
 _ZNK2FS3zfs15supportToolNameEv@Base 22.04.3
 _ZNK2FS3zfs16supportToolFoundEv@Base 22.04.3
 _ZNK2FS4ext210updateUUIDER6ReportRK7QString@Base 22.04.3
 _ZNK2FS4ext211maxCapacityEv@Base 22.04.3
 _ZNK2FS4ext214maxLabelLengthEv@Base 22.04.3
 _ZNK2FS4ext215supportToolNameEv@Base 22.04.3
 _ZNK2FS4ext216readUsedCapacityERK7QString@Base 22.04.3
 _ZNK2FS4ext216supportToolFoundEv@Base 22.04.3
 _ZNK2FS4ext25checkER6ReportRK7QString@Base 22.04.3
 _ZNK2FS4ext26resizeER6ReportRK7QStringx@Base 22.04.3
 _ZNK2FS4ext311maxCapacityEv@Base 22.04.3
 _ZNK2FS4ext312resizeOnlineER6ReportRK7QStringS5_x@Base 22.04.3
 _ZNK2FS4ext411maxCapacityEv@Base 22.04.3
 _ZNK2FS4ext412resizeOnlineER6ReportRK7QStringS5_x@Base 22.04.3
 _ZNK2FS4f2fs11maxCapacityEv@Base 22.04.3
 _ZNK2FS4f2fs11minCapacityEv@Base 22.04.3
 _ZNK2FS4f2fs14maxLabelLengthEv@Base 22.04.3
 _ZNK2FS4f2fs15supportToolNameEv@Base 22.04.3
 _ZNK2FS4f2fs16supportToolFoundEv@Base 22.04.3
 _ZNK2FS4f2fs5checkER6ReportRK7QString@Base 22.04.3
 _ZNK2FS4f2fs6resizeER6ReportRK7QStringx@Base 22.04.3
 _ZNK2FS4hpfs11maxCapacityEv@Base 22.04.3
 _ZNK2FS4luks10canUnmountERK7QString@Base 22.04.3
 _ZNK2FS4luks10mountTitleEv@Base 22.04.3
 _ZNK2FS4luks10passphraseEv@Base 22.04.3
 _ZNK2FS4luks10updateUUIDER6ReportRK7QString@Base 22.04.3
 _ZNK2FS4luks11isCryptOpenEv@Base 22.04.3
 _ZNK2FS4luks12canCryptOpenERK7QString@Base 22.04.3
 _ZNK2FS4luks12resizeOnlineER6ReportRK7QStringS5_x@Base 22.04.3
 _ZNK2FS4luks12unmountTitleEv@Base 22.04.3
 _ZNK2FS4luks13canCryptCloseERK7QString@Base 22.04.3
 _ZNK2FS4luks13readOuterUUIDERK7QString@Base 22.04.3
 _ZNK2FS4luks14cryptOpenTitleEv@Base 22.04.3
 _ZNK2FS4luks14testPassphraseERK7QStringS3_@Base 22.04.3
 _ZNK2FS4luks15cryptCloseTitleEv@Base 22.04.3
 _ZNK2FS4luks15supportToolNameEv@Base 22.04.3
 _ZNK2FS4luks16readUsedCapacityERK7QString@Base 22.04.3
 _ZNK2FS4luks16supportToolFoundEv@Base 22.04.3
 _ZNK2FS4luks19suggestedMapperNameERK7QString@Base 22.04.3
 _ZNK2FS4luks4typeEv@Base 22.04.3
 _ZNK2FS4luks5checkER6ReportRK7QString@Base 22.04.3
 _ZNK2FS4luks6resizeER6ReportRK7QStringx@Base 22.04.3
 _ZNK2FS4luks8canMountERK7QStringS3_@Base 22.04.3
 _ZNK2FS4luks8readUUIDERK7QString@Base 22.04.3
 _ZNK2FS4luks9isMountedEv@Base 22.04.3
 _ZNK2FS4luks9outerUuidEv@Base 22.04.3
 _ZNK2FS4luks9readLabelERK7QString@Base 22.04.3
 _ZNK2FS4ntfs10updateUUIDER6ReportRK7QString@Base 22.04.3
 _ZNK2FS4ntfs11maxCapacityEv@Base 22.04.3
 _ZNK2FS4ntfs11minCapacityEv@Base 22.04.3
 _ZNK2FS4ntfs14maxLabelLengthEv@Base 22.04.3
 _ZNK2FS4ntfs15supportToolNameEv@Base 22.04.3
 _ZNK2FS4ntfs16readUsedCapacityERK7QString@Base 22.04.3
 _ZNK2FS4ntfs16supportToolFoundEv@Base 22.04.3
 _ZNK2FS4ntfs16updateBootSectorER6ReportRK7QString@Base 22.04.3
 _ZNK2FS4ntfs4copyER6ReportRK7QStringS5_@Base 22.04.3
 _ZNK2FS4ntfs5checkER6ReportRK7QString@Base 22.04.3
 _ZNK2FS4ntfs6resizeER6ReportRK7QStringx@Base 22.04.3
 _ZNK2FS5btrfs10updateUUIDER6ReportRK7QString@Base 22.04.3
 _ZNK2FS5btrfs11maxCapacityEv@Base 22.04.3
 _ZNK2FS5btrfs11minCapacityEv@Base 22.04.3
 _ZNK2FS5btrfs12resizeOnlineER6ReportRK7QStringS5_x@Base 22.04.3
 _ZNK2FS5btrfs14maxLabelLengthEv@Base 22.04.3
 _ZNK2FS5btrfs15supportToolNameEv@Base 22.04.3
 _ZNK2FS5btrfs16readUsedCapacityERK7QString@Base 22.04.3
 _ZNK2FS5btrfs16supportToolFoundEv@Base 22.04.3
 _ZNK2FS5btrfs5checkER6ReportRK7QString@Base 22.04.3
 _ZNK2FS5btrfs6resizeER6ReportRK7QStringx@Base 22.04.3
 _ZNK2FS5exfat10updateUUIDER6ReportRK7QString@Base 22.04.3
 _ZNK2FS5exfat11maxCapacityEv@Base 22.04.3
 _ZNK2FS5exfat14maxLabelLengthEv@Base 22.04.3
 _ZNK2FS5exfat15supportToolNameEv@Base 22.04.3
 _ZNK2FS5exfat16supportToolFoundEv@Base 22.04.3
 _ZNK2FS5exfat5checkER6ReportRK7QString@Base 22.04.3
 _ZNK2FS5fat1210updateUUIDER6ReportRK7QString@Base 22.04.3
 _ZNK2FS5fat1211maxCapacityEv@Base 22.04.3
 _ZNK2FS5fat1211minCapacityEv@Base 22.04.3
 _ZNK2FS5fat1214labelValidatorEP7QObject@Base 22.04.3
 _ZNK2FS5fat1214maxLabelLengthEv@Base 22.04.3
 _ZNK2FS5fat1215supportToolNameEv@Base 22.04.3
 _ZNK2FS5fat1216readUsedCapacityERK7QString@Base 22.04.3
 _ZNK2FS5fat1216supportToolFoundEv@Base 22.04.3
 _ZNK2FS5fat125checkER6ReportRK7QString@Base 22.04.3
 _ZNK2FS5fat1611maxCapacityEv@Base 22.04.3
 _ZNK2FS5fat1611minCapacityEv@Base 22.04.3
 _ZNK2FS5fat1616supportToolFoundEv@Base 22.04.3
 _ZNK2FS5fat166resizeER6ReportRK7QStringx@Base 22.04.3
 _ZNK2FS5fat3210updateUUIDER6ReportRK7QString@Base 22.04.3
 _ZNK2FS5fat3211maxCapacityEv@Base 22.04.3
 _ZNK2FS5fat3211minCapacityEv@Base 22.04.3
 _ZNK2FS5luks24typeEv@Base 22.04.3
 _ZNK2FS5luks26resizeER6ReportRK7QStringx@Base 22.04.3
 _ZNK2FS5minix11maxCapacityEv@Base 22.04.3
 _ZNK2FS5minix14maxLabelLengthEv@Base 22.04.3
 _ZNK2FS5minix15supportToolNameEv@Base 22.04.3
 _ZNK2FS5minix16supportToolFoundEv@Base 22.04.3
 _ZNK2FS5minix5checkER6ReportRK7QString@Base 22.04.3
 _ZNK2FS5ocfs210updateUUIDER6ReportRK7QString@Base 22.04.3
 _ZNK2FS5ocfs211maxCapacityEv@Base 22.04.3
 _ZNK2FS5ocfs211minCapacityEv@Base 22.04.3
 _ZNK2FS5ocfs215supportToolNameEv@Base 22.04.3
 _ZNK2FS5ocfs216readUsedCapacityERK7QString@Base 22.04.3
 _ZNK2FS5ocfs216supportToolFoundEv@Base 22.04.3
 _ZNK2FS5ocfs25checkER6ReportRK7QString@Base 22.04.3
 _ZNK2FS5ocfs26resizeER6ReportRK7QStringx@Base 22.04.3
 _ZNK2FS6nilfs210updateUUIDER6ReportRK7QString@Base 22.04.3
 _ZNK2FS6nilfs211maxCapacityEv@Base 22.04.3
 _ZNK2FS6nilfs211minCapacityEv@Base 22.04.3
 _ZNK2FS6nilfs212resizeOnlineER6ReportRK7QStringS5_x@Base 22.04.3
 _ZNK2FS6nilfs214maxLabelLengthEv@Base 22.04.3
 _ZNK2FS6nilfs215supportToolNameEv@Base 22.04.3
 _ZNK2FS6nilfs216readUsedCapacityERK7QString@Base 22.04.3
 _ZNK2FS6nilfs216supportToolFoundEv@Base 22.04.3
 _ZNK2FS6nilfs25checkER6ReportRK7QString@Base 22.04.3
 _ZNK2FS6nilfs26resizeER6ReportRK7QStringx@Base 22.04.3
 _ZNK2FS7hfsplus11maxCapacityEv@Base 22.04.3
 _ZNK2FS7hfsplus14maxLabelLengthEv@Base 22.04.3
 _ZNK2FS7hfsplus15supportToolNameEv@Base 22.04.3
 _ZNK2FS7hfsplus16supportToolFoundEv@Base 22.04.3
 _ZNK2FS7hfsplus5checkER6ReportRK7QString@Base 22.04.3
 _ZNK2FS7lvm2_pv10canUnmountERK7QString@Base 22.04.3
 _ZNK2FS7lvm2_pv10updateUUIDER6ReportRK7QString@Base 22.04.3
 _ZNK2FS7lvm2_pv11maxCapacityEv@Base 22.04.3
 _ZNK2FS7lvm2_pv12resizeOnlineER6ReportRK7QStringS5_x@Base 22.04.3
 _ZNK2FS7lvm2_pv15supportToolNameEv@Base 22.04.3
 _ZNK2FS7lvm2_pv16readUsedCapacityERK7QString@Base 22.04.3
 _ZNK2FS7lvm2_pv16supportToolFoundEv@Base 22.04.3
 _ZNK2FS7lvm2_pv5checkER6ReportRK7QString@Base 22.04.3
 _ZNK2FS7lvm2_pv6removeER6ReportRK7QString@Base 22.04.3
 _ZNK2FS7lvm2_pv6resizeER6ReportRK7QStringx@Base 22.04.3
 _ZNK2FS7lvm2_pv8canMountERK7QStringS3_@Base 22.04.3
 _ZNK2FS7lvm2_pv8readUUIDERK7QString@Base 22.04.3
 _ZNK2FS7reiser411maxCapacityEv@Base 22.04.3
 _ZNK2FS7reiser414maxLabelLengthEv@Base 22.04.3
 _ZNK2FS7reiser415supportToolNameEv@Base 22.04.3
 _ZNK2FS7reiser416readUsedCapacityERK7QString@Base 22.04.3
 _ZNK2FS7reiser416supportToolFoundEv@Base 22.04.3
 _ZNK2FS7reiser45checkER6ReportRK7QString@Base 22.04.3
 _ZNK2FS7unknown8canMountERK7QStringS3_@Base 22.04.3
 _ZNK2FS8bcachefs11maxCapacityEv@Base 24.05.2
 _ZNK2FS8bcachefs11minCapacityEv@Base 24.05.2
 _ZNK2FS8bcachefs12resizeOnlineER6ReportRK7QStringS5_x@Base 24.05.2
 _ZNK2FS8bcachefs14maxLabelLengthEv@Base 24.05.2
 _ZNK2FS8bcachefs15supportToolNameEv@Base 24.05.2
 _ZNK2FS8bcachefs16supportToolFoundEv@Base 24.05.2
 _ZNK2FS8bcachefs5checkER6ReportRK7QString@Base 24.05.2
 _ZNK2FS8bcachefs6resizeER6ReportRK7QStringx@Base 24.05.2
 _ZNK2FS8reiserfs10updateUUIDER6ReportRK7QString@Base 22.04.3
 _ZNK2FS8reiserfs11maxCapacityEv@Base 22.04.3
 _ZNK2FS8reiserfs11minCapacityEv@Base 22.04.3
 _ZNK2FS8reiserfs12resizeOnlineER6ReportRK7QStringS5_x@Base 22.04.3
 _ZNK2FS8reiserfs14maxLabelLengthEv@Base 22.04.3
 _ZNK2FS8reiserfs15supportToolNameEv@Base 22.04.3
 _ZNK2FS8reiserfs16readUsedCapacityERK7QString@Base 22.04.3
 _ZNK2FS8reiserfs16supportToolFoundEv@Base 22.04.3
 _ZNK2FS8reiserfs5checkER6ReportRK7QString@Base 22.04.3
 _ZNK2FS8reiserfs6resizeER6ReportRK7QStringx@Base 22.04.3
 _ZNK2FS9linuxswap10mountTitleEv@Base 22.04.3
 _ZNK2FS9linuxswap10updateUUIDER6ReportRK7QString@Base 22.04.3
 _ZNK2FS9linuxswap12unmountTitleEv@Base 22.04.3
 _ZNK2FS9linuxswap14maxLabelLengthEv@Base 22.04.3
 _ZNK2FS9linuxswap15supportToolNameEv@Base 22.04.3
 _ZNK2FS9linuxswap16readUsedCapacityERK7QString@Base 22.04.3
 _ZNK2FS9linuxswap16supportToolFoundEv@Base 22.04.3
 _ZNK2FS9linuxswap4copyER6ReportRK7QStringS5_@Base 22.04.3
 _ZNK2FS9linuxswap6resizeER6ReportRK7QStringx@Base 22.04.3
 _ZNK2FS9linuxswap8canMountERK7QStringS3_@Base 22.04.3
 _ZNK30DeactivateVolumeGroupOperation11descriptionEv@Base 22.04.3
 _ZNK3Job10metaObjectEv@Base 22.04.3
 _ZNK3Job10statusIconEv@Base 22.04.3
 _ZNK3Job10statusTextEv@Base 22.04.3
 _ZNK6Device10deviceNodeEv@Base 22.04.3
 _ZNK6Device10prettyNameEv@Base 22.04.3
 _ZNK6Device11logicalSizeEv@Base 22.04.3
 _ZNK6Device11smartStatusEv@Base 22.04.3
 _ZNK6Device12totalLogicalEv@Base 22.04.3
 _ZNK6Device14partitionTableEv@Base 22.04.3
 _ZNK6Device4nameEv@Base 22.04.3
 _ZNK6Device4typeEv@Base 22.04.3
 _ZNK6Device8iconNameEv@Base 22.04.3
 _ZNK6DeviceeqERKS_@Base 22.04.3
 _ZNK6DeviceneERKS_@Base 22.04.3
 _ZNK6Report10metaObjectEv@Base 22.04.3
 _ZNK6Report4rootEv@Base 22.04.3
 _ZNK6Report6toHtmlEv@Base 22.04.3
 _ZNK6Report6toTextEv@Base 22.04.3
 _ZNK8Capacity5toIntENS_4UnitE@Base 22.04.3
 _ZNK8Capacity7isValidEv@Base 22.04.3
 _ZNK8Capacity8toDoubleENS_4UnitE@Base 22.04.3
 _ZNK9GlobalLog10metaObjectEv@Base 22.04.3
 _ZNK9LvmDevice11allocatedPEEv@Base 22.04.3
 _ZNK9LvmDevice11deviceNodesEv@Base 22.04.3
 _ZNK9LvmDevice12mappedSectorERK7QStringx@Base 22.04.3
 _ZNK9LvmDevice13partitionSizeER7QString@Base 22.04.3
 _ZNK9LvmDevice13scanPartitionERK7QStringP14PartitionTable@Base 22.04.3
 _ZNK9LvmDevice14partitionNodesEv@Base 22.04.3
 _ZNK9LvmDevice14scanPartitionsEP14PartitionTable@Base 22.04.3
 _ZNK9LvmDevice15physicalVolumesEv@Base 22.04.3
 _ZNK9LvmDevice4UUIDEv@Base 22.04.3
 _ZNK9LvmDevice6freePEEv@Base 22.04.3
 _ZNK9LvmDevice6peSizeEv@Base 22.04.3
 _ZNK9LvmDevice7totalPEEv@Base 22.04.3
 _ZNK9LvmDevice9LVSizeMapEv@Base 22.04.3
 _ZNK9LvmDevice9setFreePEEx@Base 22.04.3
 _ZNK9Operation10metaObjectEv@Base 22.04.3
 _ZNK9Operation10statusIconEv@Base 22.04.3
 _ZNK9Operation10statusTextEv@Base 22.04.3
 _ZNK9Operation12progressBaseEv@Base 22.04.3
 _ZNK9Operation13totalProgressEv@Base 22.04.3
 _ZNK9Operation4jobsEv@Base 22.04.3
 _ZNK9Operation6statusEv@Base 22.04.3
 _ZNK9Partition10canUnmountEv@Base 22.04.3
 _ZNK9Partition10deviceNodeEv@Base 22.04.3
 _ZNK9Partition11hasChildrenEv@Base 22.04.3
 _ZNK9Partition11sectorsUsedEv@Base 22.04.3
 _ZNK9Partition13minLastSectorEv@Base 22.04.3
 _ZNK9Partition14maxFirstSectorEv@Base 22.04.3
 _ZNK9Partition14maximumSectorsEv@Base 22.04.3
 _ZNK9Partition14minimumSectorsEv@Base 22.04.3
 _ZNK9Partition14partitionTableEv@Base 22.04.3
 _ZNK9Partition20adjustLogicalNumbersEii@Base 22.04.3
 _ZNK9Partition8canMountEv@Base 22.04.3
 _ZNK9PartitioneqERKS_@Base 22.04.3
 _ZNK9PartitionneERKS_@Base 22.04.3
 (optional=templinst)_ZNKSt8_Rb_treeI7QStringSt4pairIKS0_8QVariantESt10_Select1stIS4_ESt4lessIS0_ESaIS4_EE4findERS2_@Base 24.05.2
 (optional=templinst)_ZNSt10_HashtableI7QStringS0_SaIS0_ENSt8__detail9_IdentityESt8equal_toIS0_ESt4hashIS0_ENS2_18_Mod_range_hashingENS2_20_Default_ranged_hashENS2_20_Prime_rehash_policyENS2_17_Hashtable_traitsILb0ELb1ELb1EEEE5clearEv@Base 24.05.2
 (optional=templinst)_ZNSt10_HashtableI7QStringS0_SaIS0_ENSt8__detail9_IdentityESt8equal_toIS0_ESt4hashIS0_ENS2_18_Mod_range_hashingENS2_20_Default_ranged_hashENS2_20_Prime_rehash_policyENS2_17_Hashtable_traitsILb0ELb1ELb1EEEEC1IPKS0_EET_SH_mRKS7_RKS5_RKS1_St17integral_constantIbLb1EE@Base 24.05.2
 (optional=templinst)_ZNSt10_HashtableI7QStringS0_SaIS0_ENSt8__detail9_IdentityESt8equal_toIS0_ESt4hashIS0_ENS2_18_Mod_range_hashingENS2_20_Default_ranged_hashENS2_20_Prime_rehash_policyENS2_17_Hashtable_traitsILb0ELb1ELb1EEEEC2IPKS0_EET_SH_mRKS7_RKS5_RKS1_St17integral_constantIbLb1EE@Base 24.05.2
 (optional=templinst)_ZNSt8_Rb_treeI7QStringSt4pairIKS0_8QVariantESt10_Select1stIS4_ESt4lessIS0_ESaIS4_EE16_M_insert_uniqueIS4_EES1_ISt17_Rb_tree_iteratorIS4_EbEOT_@Base 24.05.2
 (optional=templinst)_ZNSt8_Rb_treeI7QStringSt4pairIKS0_8QVariantESt10_Select1stIS4_ESt4lessIS0_ESaIS4_EE24_M_get_insert_unique_posERS2_@Base 24.05.2
 (optional=templinst)_ZNSt8_Rb_treeI7QStringSt4pairIKS0_8QVariantESt10_Select1stIS4_ESt4lessIS0_ESaIS4_EE29_M_get_insert_hint_unique_posESt23_Rb_tree_const_iteratorIS4_ERS2_@Base 24.05.2
 _ZTI10DiskDevice@Base 22.04.3
 _ZTI10FileSystem@Base 22.04.3
 _ZTI10PartWidget@Base 22.04.3
 _ZTI11CoreBackend@Base 22.04.3
 _ZTI12NewOperation@Base 22.04.3
 _ZTI12SoftwareRAID@Base 22.04.3
 _ZTI13CopyOperation@Base 22.04.3
 _ZTI13DeviceScanner@Base 22.04.3
 _ZTI13PartitionNode@Base 22.04.3
 _ZTI14CheckOperation@Base 22.04.3
 _ZTI14OperationStack@Base 22.04.3
 _ZTI14PartWidgetBase@Base 22.04.3
 _ZTI14PartitionTable@Base 22.04.3
 _ZTI15BackupOperation@Base 22.04.3
 _ZTI15DeleteOperation@Base 22.04.3
 _ZTI15ExternalCommand@Base 22.04.3
 _ZTI15OperationRunner@Base 22.04.3
 _ZTI15ResizeOperation@Base 22.04.3
 _ZTI16RestoreOperation@Base 22.04.3
 _ZTI17PartResizerWidget@Base 22.04.3
 _ZTI19VolumeManagerDevice@Base 22.04.3
 _ZTI21SetPartFlagsOperation@Base 22.04.3
 _ZTI25CreateFileSystemOperation@Base 22.04.3
 _ZTI26CreateVolumeGroupOperation@Base 22.04.3
 _ZTI26RemoveVolumeGroupOperation@Base 22.04.3
 _ZTI26ResizeVolumeGroupOperation@Base 22.04.3
 _ZTI27SetFileSystemLabelOperation@Base 22.04.3
 _ZTI29CreatePartitionTableOperation@Base 22.04.3
 _ZTI30DeactivateVolumeGroupOperation@Base 22.04.3
 _ZTI3Job@Base 22.04.3
 _ZTI6Device@Base 22.04.3
 _ZTI6Report@Base 22.04.3
 _ZTI9GlobalLog@Base 22.04.3
 _ZTI9LvmDevice@Base 22.04.3
 _ZTI9Operation@Base 22.04.3
 _ZTI9Partition@Base 22.04.3
 _ZTIN2FS11unformattedE@Base 22.04.3
 _ZTIN2FS15linuxraidmemberE@Base 22.04.3
 _ZTIN2FS3hfsE@Base 22.04.3
 _ZTIN2FS3jfsE@Base 22.04.3
 _ZTIN2FS3udfE@Base 22.04.3
 _ZTIN2FS3ufsE@Base 22.04.3
 _ZTIN2FS3xfsE@Base 22.04.3
 _ZTIN2FS3zfsE@Base 22.04.3
 _ZTIN2FS4apfsE@Base 22.04.3
 _ZTIN2FS4ext2E@Base 22.04.3
 _ZTIN2FS4ext3E@Base 22.04.3
 _ZTIN2FS4ext4E@Base 22.04.3
 _ZTIN2FS4f2fsE@Base 22.04.3
 _ZTIN2FS4hpfsE@Base 22.04.3
 _ZTIN2FS4luksE@Base 22.04.3
 _ZTIN2FS4ntfsE@Base 22.04.3
 _ZTIN2FS5btrfsE@Base 22.04.3
 _ZTIN2FS5exfatE@Base 22.04.3
 _ZTIN2FS5fat12E@Base 22.04.3
 _ZTIN2FS5fat16E@Base 22.04.3
 _ZTIN2FS5fat32E@Base 22.04.3
 _ZTIN2FS5luks2E@Base 22.04.3
 _ZTIN2FS5minixE@Base 22.04.3
 _ZTIN2FS5ocfs2E@Base 22.04.3
 _ZTIN2FS6nilfs2E@Base 22.04.3
 _ZTIN2FS7hfsplusE@Base 22.04.3
 _ZTIN2FS7iso9660E@Base 22.04.3
 _ZTIN2FS7lvm2_pvE@Base 22.04.3
 _ZTIN2FS7reiser4E@Base 22.04.3
 _ZTIN2FS7unknownE@Base 22.04.3
 _ZTIN2FS8bcachefsE@Base 24.05.2
 _ZTIN2FS8extendedE@Base 22.04.3
 _ZTIN2FS8reiserfsE@Base 22.04.3
 _ZTIN2FS9bitlockerE@Base 22.04.3
 _ZTIN2FS9linuxswapE@Base 22.04.3
 (arch=armel riscv64)_ZTIN9__gnu_cxx7__mutexE@Base 22.08.1
 (arch=armel riscv64)_ZTISt11_Mutex_baseILN9__gnu_cxx12_Lock_policyE1EE@Base 22.08.1
 (arch=amd64 armhf)_ZTISt11_Mutex_baseILN9__gnu_cxx12_Lock_policyE2EE@Base 22.08.1
 (arch=armel riscv64)_ZTISt16_Sp_counted_baseILN9__gnu_cxx12_Lock_policyE1EE@Base 22.08.1
 (arch=amd64 armhf)_ZTISt16_Sp_counted_baseILN9__gnu_cxx12_Lock_policyE2EE@Base 22.08.1
 (arch=armel armhf)_ZTISt19_Sp_make_shared_tag@Base 22.08.1
 (arch=armel riscv64)_ZTISt23_Sp_counted_ptr_inplaceI11SmartStatusSaIvELN9__gnu_cxx12_Lock_policyE1EE@Base 22.08.1
 (arch=amd64 armhf)_ZTISt23_Sp_counted_ptr_inplaceI11SmartStatusSaIvELN9__gnu_cxx12_Lock_policyE2EE@Base 22.08.1
 _ZTS10DiskDevice@Base 22.04.3
 _ZTS10FileSystem@Base 22.04.3
 _ZTS10PartWidget@Base 22.04.3
 _ZTS11CoreBackend@Base 22.04.3
 _ZTS12NewOperation@Base 22.04.3
 _ZTS12SoftwareRAID@Base 22.04.3
 _ZTS13CopyOperation@Base 22.04.3
 _ZTS13DeviceScanner@Base 22.04.3
 _ZTS13PartitionNode@Base 22.04.3
 _ZTS14CheckOperation@Base 22.04.3
 _ZTS14OperationStack@Base 22.04.3
 _ZTS14PartWidgetBase@Base 22.04.3
 _ZTS14PartitionTable@Base 22.04.3
 _ZTS15BackupOperation@Base 22.04.3
 _ZTS15DeleteOperation@Base 22.04.3
 _ZTS15ExternalCommand@Base 22.04.3
 _ZTS15OperationRunner@Base 22.04.3
 _ZTS15ResizeOperation@Base 22.04.3
 _ZTS16RestoreOperation@Base 22.04.3
 _ZTS17PartResizerWidget@Base 22.04.3
 _ZTS19VolumeManagerDevice@Base 22.04.3
 _ZTS21SetPartFlagsOperation@Base 22.04.3
 _ZTS25CreateFileSystemOperation@Base 22.04.3
 _ZTS26CreateVolumeGroupOperation@Base 22.04.3
 _ZTS26RemoveVolumeGroupOperation@Base 22.04.3
 _ZTS26ResizeVolumeGroupOperation@Base 22.04.3
 _ZTS27SetFileSystemLabelOperation@Base 22.04.3
 _ZTS29CreatePartitionTableOperation@Base 22.04.3
 _ZTS30DeactivateVolumeGroupOperation@Base 22.04.3
 _ZTS3Job@Base 22.04.3
 _ZTS6Device@Base 22.04.3
 _ZTS6Report@Base 22.04.3
 _ZTS9GlobalLog@Base 22.04.3
 _ZTS9LvmDevice@Base 22.04.3
 _ZTS9Operation@Base 22.04.3
 _ZTS9Partition@Base 22.04.3
 _ZTSN2FS11unformattedE@Base 22.04.3
 _ZTSN2FS15linuxraidmemberE@Base 22.04.3
 _ZTSN2FS3hfsE@Base 22.04.3
 _ZTSN2FS3jfsE@Base 22.04.3
 _ZTSN2FS3udfE@Base 22.04.3
 _ZTSN2FS3ufsE@Base 22.04.3
 _ZTSN2FS3xfsE@Base 22.04.3
 _ZTSN2FS3zfsE@Base 22.04.3
 _ZTSN2FS4apfsE@Base 22.04.3
 _ZTSN2FS4ext2E@Base 22.04.3
 _ZTSN2FS4ext3E@Base 22.04.3
 _ZTSN2FS4ext4E@Base 22.04.3
 _ZTSN2FS4f2fsE@Base 22.04.3
 _ZTSN2FS4hpfsE@Base 22.04.3
 _ZTSN2FS4luksE@Base 22.04.3
 _ZTSN2FS4ntfsE@Base 22.04.3
 _ZTSN2FS5btrfsE@Base 22.04.3
 _ZTSN2FS5exfatE@Base 22.04.3
 _ZTSN2FS5fat12E@Base 22.04.3
 _ZTSN2FS5fat16E@Base 22.04.3
 _ZTSN2FS5fat32E@Base 22.04.3
 _ZTSN2FS5luks2E@Base 22.04.3
 _ZTSN2FS5minixE@Base 22.04.3
 _ZTSN2FS5ocfs2E@Base 22.04.3
 _ZTSN2FS6nilfs2E@Base 22.04.3
 _ZTSN2FS7hfsplusE@Base 22.04.3
 _ZTSN2FS7iso9660E@Base 22.04.3
 _ZTSN2FS7lvm2_pvE@Base 22.04.3
 _ZTSN2FS7reiser4E@Base 22.04.3
 _ZTSN2FS7unknownE@Base 22.04.3
 _ZTSN2FS8bcachefsE@Base 24.05.2
 _ZTSN2FS8extendedE@Base 22.04.3
 _ZTSN2FS8reiserfsE@Base 22.04.3
 _ZTSN2FS9bitlockerE@Base 22.04.3
 _ZTSN2FS9linuxswapE@Base 22.04.3
 (arch=armel riscv64)_ZTSN9__gnu_cxx7__mutexE@Base 22.08.1
 (arch=armel riscv64)_ZTSSt11_Mutex_baseILN9__gnu_cxx12_Lock_policyE1EE@Base 22.08.1
 (arch=amd64 armhf)_ZTSSt11_Mutex_baseILN9__gnu_cxx12_Lock_policyE2EE@Base 22.08.1
 (arch=armel riscv64)_ZTSSt16_Sp_counted_baseILN9__gnu_cxx12_Lock_policyE1EE@Base 22.08.1
 (arch=amd64 armhf)_ZTSSt16_Sp_counted_baseILN9__gnu_cxx12_Lock_policyE2EE@Base 22.08.1
 _ZTSSt19_Sp_make_shared_tag@Base 22.04.3
 (arch=armel riscv64)_ZTSSt23_Sp_counted_ptr_inplaceI11SmartStatusSaIvELN9__gnu_cxx12_Lock_policyE1EE@Base 22.08.1
 (arch=amd64 armhf)_ZTSSt23_Sp_counted_ptr_inplaceI11SmartStatusSaIvELN9__gnu_cxx12_Lock_policyE2EE@Base 22.08.1
 _ZTV10DiskDevice@Base 22.04.3
 _ZTV10FileSystem@Base 22.04.3
 _ZTV10PartWidget@Base 22.04.3
 _ZTV11CoreBackend@Base 22.04.3
 _ZTV12NewOperation@Base 22.04.3
 _ZTV12SoftwareRAID@Base 22.04.3
 _ZTV13CopyOperation@Base 22.04.3
 _ZTV13DeviceScanner@Base 22.04.3
 _ZTV13PartitionNode@Base 22.04.3
 _ZTV14CheckOperation@Base 22.04.3
 _ZTV14OperationStack@Base 22.04.3
 _ZTV14PartWidgetBase@Base 22.04.3
 _ZTV14PartitionTable@Base 22.04.3
 _ZTV15BackupOperation@Base 22.04.3
 _ZTV15DeleteOperation@Base 22.04.3
 _ZTV15ExternalCommand@Base 22.04.3
 _ZTV15OperationRunner@Base 22.04.3
 _ZTV15ResizeOperation@Base 22.04.3
 _ZTV16RestoreOperation@Base 22.04.3
 _ZTV17PartResizerWidget@Base 22.04.3
 _ZTV19VolumeManagerDevice@Base 22.04.3
 _ZTV21SetPartFlagsOperation@Base 22.04.3
 _ZTV25CreateFileSystemOperation@Base 22.04.3
 _ZTV26CreateVolumeGroupOperation@Base 22.04.3
 _ZTV26RemoveVolumeGroupOperation@Base 22.04.3
 _ZTV26ResizeVolumeGroupOperation@Base 22.04.3
 _ZTV27SetFileSystemLabelOperation@Base 22.04.3
 _ZTV29CreatePartitionTableOperation@Base 22.04.3
 _ZTV30DeactivateVolumeGroupOperation@Base 22.04.3
 _ZTV3Job@Base 22.04.3
 _ZTV6Device@Base 22.04.3
 _ZTV6Report@Base 22.04.3
 _ZTV9GlobalLog@Base 22.04.3
 _ZTV9LvmDevice@Base 22.04.3
 _ZTV9Operation@Base 22.04.3
 _ZTV9Partition@Base 22.04.3
 _ZTVN2FS11unformattedE@Base 22.04.3
 _ZTVN2FS15linuxraidmemberE@Base 22.04.3
 _ZTVN2FS3hfsE@Base 22.04.3
 _ZTVN2FS3jfsE@Base 22.04.3
 _ZTVN2FS3udfE@Base 22.04.3
 _ZTVN2FS3ufsE@Base 22.04.3
 _ZTVN2FS3xfsE@Base 22.04.3
 _ZTVN2FS3zfsE@Base 22.04.3
 _ZTVN2FS4apfsE@Base 22.04.3
 _ZTVN2FS4ext2E@Base 22.04.3
 _ZTVN2FS4ext3E@Base 22.04.3
 _ZTVN2FS4ext4E@Base 22.04.3
 _ZTVN2FS4f2fsE@Base 22.04.3
 _ZTVN2FS4hpfsE@Base 22.04.3
 _ZTVN2FS4luksE@Base 22.04.3
 _ZTVN2FS4ntfsE@Base 22.04.3
 _ZTVN2FS5btrfsE@Base 22.04.3
 _ZTVN2FS5exfatE@Base 22.04.3
 _ZTVN2FS5fat12E@Base 22.04.3
 _ZTVN2FS5fat16E@Base 22.04.3
 _ZTVN2FS5fat32E@Base 22.04.3
 _ZTVN2FS5luks2E@Base 22.04.3
 _ZTVN2FS5minixE@Base 22.04.3
 _ZTVN2FS5ocfs2E@Base 22.04.3
 _ZTVN2FS6nilfs2E@Base 22.04.3
 _ZTVN2FS7hfsplusE@Base 22.04.3
 _ZTVN2FS7iso9660E@Base 22.04.3
 _ZTVN2FS7lvm2_pvE@Base 22.04.3
 _ZTVN2FS7reiser4E@Base 22.04.3
 _ZTVN2FS7unknownE@Base 22.04.3
 _ZTVN2FS8bcachefsE@Base 24.05.2
 _ZTVN2FS8extendedE@Base 22.04.3
 _ZTVN2FS8reiserfsE@Base 22.04.3
 _ZTVN2FS9bitlockerE@Base 22.04.3
 _ZTVN2FS9linuxswapE@Base 22.04.3
 (arch=armel riscv64)_ZTVSt23_Sp_counted_ptr_inplaceI11SmartStatusSaIvELN9__gnu_cxx12_Lock_policyE1EE@Base 22.08.1
 (arch=amd64 armhf)_ZTVSt23_Sp_counted_ptr_inplaceI11SmartStatusSaIvELN9__gnu_cxx12_Lock_policyE2EE@Base 22.08.1
 _ZZNSt19_Sp_make_shared_tag5_S_tiEvE5__tag@Base 22.04.3
 _ZlsR11QTextStreamRK14PartitionTable@Base 22.04.3
